

Microchip MPLAB XC8 Assembler V2.10 build 88905656 
                                                                                               Sun Oct 12 19:45:26 2025

Microchip MPLAB XC8 C Compiler v2.10 (Free license) build 20190730164152 Og1 
     1                           	processor	18F4550
     2                           	fnconf	rparam,??,?,0
     3                           	opt	pw 120
     4                           	opt	flic
     5                           	psect	smallconst,global,reloc=2,class=SMALLCONST,delta=1,noexec
     6                           	psect	cinit,global,reloc=2,class=CODE,delta=1
     7                           	psect	bssCOMRAM,global,class=COMRAM,space=1,delta=1,noexec
     8                           	psect	bssBANK0,global,class=BANK0,space=1,delta=1,lowdata,noexec
     9                           	psect	cstackBANK0,global,class=BANK0,space=1,delta=1,noexec
    10                           	psect	cstackCOMRAM,global,class=COMRAM,space=1,delta=1,noexec
    11                           	psect	text0,global,reloc=2,class=CODE,delta=1
    12                           	psect	text1,global,reloc=2,class=CODE,delta=1
    13                           	psect	text2,global,reloc=2,class=CODE,delta=1
    14                           	psect	text3,global,reloc=2,class=CODE,delta=1
    15                           	psect	text4,global,reloc=2,class=CODE,delta=1
    16                           	psect	text5,global,reloc=2,class=CODE,delta=1,group=2
    17                           	psect	text6,global,reloc=2,class=CODE,delta=1
    18                           	psect	text7,global,reloc=2,class=CODE,delta=1
    19                           	psect	text8,global,reloc=2,class=CODE,delta=1
    20                           	psect	intcode,global,reloc=2,class=CODE,delta=1
    21                           	psect	intcode_body,global,reloc=2,class=CODE,delta=1
    22                           	psect	text10,global,reloc=2,class=CODE,delta=1,inline
    23                           	psect	text11,global,reloc=2,class=CODE,delta=1
    24                           	psect	text12,global,reloc=2,class=CODE,delta=1
    25                           	psect	text13,global,reloc=2,class=CODE,delta=1
    26                           	psect	text14,global,reloc=2,class=CODE,delta=1
    27                           	psect	text15,global,reloc=2,class=CODE,delta=1
    28                           	psect	text16,global,reloc=2,class=CODE,delta=1
    29                           	psect	text17,global,reloc=2,class=CODE,delta=1
    30                           	psect	text18,global,reloc=2,class=CODE,delta=1,group=2
    31                           	psect	text19,global,reloc=2,class=CODE,delta=1
    32                           	psect	text20,global,reloc=2,class=CODE,delta=1
    33                           	psect	text21,global,reloc=2,class=CODE,delta=1
    34                           	psect	text22,global,reloc=2,class=CODE,delta=1
    35                           	psect	text23,global,reloc=2,class=CODE,delta=1
    36                           	psect	text24,global,reloc=2,class=CODE,delta=1
    37                           	psect	text25,global,reloc=2,class=CODE,delta=1
    38                           	psect	text26,global,reloc=2,class=CODE,delta=1
    39                           	psect	text27,global,reloc=2,class=CODE,delta=1
    40                           	psect	text28,global,reloc=2,class=CODE,delta=1
    41                           	psect	text29,global,reloc=2,class=CODE,delta=1
    42                           	psect	text30,global,reloc=2,class=CODE,delta=1
    43                           	psect	text31,global,reloc=2,class=CODE,delta=1
    44                           	psect	text32,global,reloc=2,class=CODE,delta=1
    45                           	psect	text33,global,reloc=2,class=CODE,delta=1
    46                           	psect	text34,global,reloc=2,class=CODE,delta=1
    47                           	psect	text35,global,reloc=2,class=CODE,delta=1
    48                           	psect	text36,global,reloc=2,class=CODE,delta=1
    49                           	psect	text37,global,reloc=2,class=CODE,delta=1
    50                           	psect	text38,global,reloc=2,class=CODE,delta=1
    51                           	psect	intsave_regs,global,class=BIGRAM,space=1,delta=1,noexec
    52                           	psect	rparam,global,class=COMRAM,space=1,delta=1,noexec
    53                           	psect	temp,global,ovrld,common,class=COMRAM,space=1,delta=1
    54                           	dabs	1,0x400,48,_BDT
    55                           	dabs	1,0x450,32,_CtrlTrfData
    56                           	dabs	1,0x430,8,_SetupPkt
    57                           	dabs	1,0x500,64,_cdc_data_tx
    58                           	dabs	1,0x540,64,_cdc_data_rx
    59  0000                     
    60                           ; Version 2.10
    61                           ; Generated 31/07/2019 GMT
    62                           ; 
    63                           ; Copyright © 2019, Microchip Technology Inc. and its subsidiaries ("Microchip")
    64                           ; All rights reserved.
    65                           ; 
    66                           ; This software is developed by Microchip Technology Inc. and its subsidiaries ("Microch
      +                          ip").
    67                           ; 
    68                           ; Redistribution and use in source and binary forms, with or without modification, are
    69                           ; permitted provided that the following conditions are met:
    70                           ; 
    71                           ;     1. Redistributions of source code must retain the above copyright notice, this lis
      +                          t of
    72                           ;        conditions and the following disclaimer.
    73                           ; 
    74                           ;     2. Redistributions in binary form must reproduce the above copyright notice, this 
      +                          list
    75                           ;        of conditions and the following disclaimer in the documentation and/or other
    76                           ;        materials provided with the distribution.
    77                           ; 
    78                           ;     3. Microchip's name may not be used to endorse or promote products derived from th
      +                          is
    79                           ;        software without specific prior written permission.
    80                           ; 
    81                           ; THIS SOFTWARE IS PROVIDED BY MICROCHIP "AS IS" AND ANY EXPRESS OR IMPLIED WARRANTIES,
    82                           ; INCLUDING, BUT NOT LIMITED TO, THE IMPLIED WARRANTIES OF MERCHANTABILITY AND FITNESS F
      +                          OR
    83                           ; PURPOSE ARE DISCLAIMED.  IN NO EVENT SHALL MICROCHIP BE LIABLE FOR ANY DIRECT, INDIREC
      +                          T,
    84                           ; INCIDENTAL, SPECIAL, EXEMPLARY, OR CONSEQUENTIAL DAMAGES (INCLUDING BUT NOT LIMITED TO
    85                           ; PROCUREMENT OF SUBSTITUTE GOODS OR SERVICES; LOSS OF USE, DATA OR PROFITS; OR BUSINESS
    86                           ; INTERRUPTION) HOWSOEVER CAUSED AND ON ANY THEORY OF LIABILITY, WHETHER IN CONTRACT, ST
      +                          RICT
    87                           ; LIABILITY, OR TORT (INCLUDING NEGLIGENCE OR OTHERWISE) ARISING IN ANY WAY OUT OF THE U
      +                          SE OF
    88                           ; THIS SOFTWARE, EVEN IF ADVISED OF THE POSSIBILITY OF SUCH DAMAGE.
    89                           ; 
    90                           ; 
    91                           ; Code-generator required, PIC18F4550 Definitions
    92                           ; 
    93                           ; SFR Addresses
    94  0000                     
    95                           	psect	smallconst
    96  000800                     __psmallconst:
    97                           	opt callstack 0
    98  000800  00                 	db	0
    99  000801                     _USB_SD_Ptr:
   100                           	opt callstack 0
   101  000801  A4                 	db	low _sd000
   102  000802  08                 	db	high _sd000
   103  000803  4C                 	db	low _sd001
   104  000804  08                 	db	high _sd001
   105  000805  72                 	db	low _sd002
   106  000806  08                 	db	high _sd002
   107  000807                     __end_of_USB_SD_Ptr:
   108                           	opt callstack 0
   109  000807                     _USB_CD_Ptr:
   110                           	opt callstack 0
   111  000807  09                 	db	low _configDescriptor1
   112  000808  08                 	db	high _configDescriptor1
   113  000809                     __end_of_USB_CD_Ptr:
   114                           	opt callstack 0
   115  000809                     _configDescriptor1:
   116                           	opt callstack 0
   117  000809  09                 	db	9
   118  00080A  02                 	db	2
   119  00080B  43                 	db	67
   120  00080C  00                 	db	0
   121  00080D  02                 	db	2
   122  00080E  01                 	db	1
   123  00080F  00                 	db	0
   124  000810  C0                 	db	192
   125  000811  32                 	db	50
   126  000812  09                 	db	9
   127  000813  04                 	db	4
   128  000814  00                 	db	0
   129  000815  00                 	db	0
   130  000816  01                 	db	1
   131  000817  02                 	db	2
   132  000818  02                 	db	2
   133  000819  01                 	db	1
   134  00081A  00                 	db	0
   135  00081B  05                 	db	5
   136  00081C  24                 	db	36
   137  00081D  00                 	db	0
   138  00081E  10                 	db	16
   139  00081F  01                 	db	1
   140  000820  04                 	db	4
   141  000821  24                 	db	36
   142  000822  02                 	db	2
   143  000823  02                 	db	2
   144  000824  05                 	db	5
   145  000825  24                 	db	36
   146  000826  06                 	db	6
   147  000827  00                 	db	0
   148  000828  01                 	db	1
   149  000829  05                 	db	5
   150  00082A  24                 	db	36
   151  00082B  01                 	db	1
   152  00082C  00                 	db	0
   153  00082D  01                 	db	1
   154  00082E  07                 	db	7
   155  00082F  05                 	db	5
   156  000830  81                 	db	129
   157  000831  03                 	db	3
   158  000832  0A                 	db	10
   159  000833  00                 	db	0
   160  000834  02                 	db	2
   161  000835  09                 	db	9
   162  000836  04                 	db	4
   163  000837  01                 	db	1
   164  000838  00                 	db	0
   165  000839  02                 	db	2
   166  00083A  0A                 	db	10
   167  00083B  00                 	db	0
   168  00083C  00                 	db	0
   169  00083D  00                 	db	0
   170  00083E  07                 	db	7
   171  00083F  05                 	db	5
   172  000840  02                 	db	2
   173  000841  02                 	db	2
   174  000842  40                 	db	64
   175  000843  00                 	db	0
   176  000844  00                 	db	0
   177  000845  07                 	db	7
   178  000846  05                 	db	5
   179  000847  82                 	db	130
   180  000848  02                 	db	2
   181  000849  40                 	db	64
   182  00084A  00                 	db	0
   183  00084B  00                 	db	0
   184  00084C                     __end_of_configDescriptor1:
   185                           	opt callstack 0
   186  00084C                     _sd001:
   187                           	opt callstack 0
   188  00084C  26                 	db	38
   189  00084D  03                 	db	3
   190  00084E  0044               	dw	68
   191  000850  0069               	dw	105
   192  000852  006C               	dw	108
   193  000854  0073               	dw	115
   194  000856  0068               	dw	104
   195  000858  0061               	dw	97
   196  00085A  006E               	dw	110
   197  00085C  0020               	dw	32
   198  00085E  0052               	dw	82
   199  000860  0020               	dw	32
   200  000862  004A               	dw	74
   201  000864  0061               	dw	97
   202  000866  0079               	dw	121
   203  000868  0061               	dw	97
   204  00086A  006B               	dw	107
   205  00086C  006F               	dw	111
   206  00086E  0064               	dw	100
   207  000870  0079               	dw	121
   208  000872                     __end_of_sd001:
   209                           	opt callstack 0
   210  000872                     _sd002:
   211                           	opt callstack 0
   212  000872  20                 	db	32
   213  000873  03                 	db	3
   214  000874  0054               	dw	84
   215  000876  0065               	dw	101
   216  000878  0073               	dw	115
   217  00087A  0074               	dw	116
   218  00087C  0020               	dw	32
   219  00087E  0055               	dw	85
   220  000880  0053               	dw	83
   221  000882  0042               	dw	66
   222  000884  0020               	dw	32
   223  000886  0044               	dw	68
   224  000888  0065               	dw	101
   225  00088A  0076               	dw	118
   226  00088C  0069               	dw	105
   227  00088E  0063               	dw	99
   228  000890  0065               	dw	101
   229  000892                     __end_of_sd002:
   230                           	opt callstack 0
   231  000892                     _device_dsc:
   232                           	opt callstack 0
   233  000892  12                 	db	18
   234  000893  01                 	db	1
   235  000894  0200               	dw	512
   236  000896  02                 	db	2
   237  000897  00                 	db	0
   238  000898  00                 	db	0
   239  000899  20                 	db	32
   240  00089A  04D8               	dw	1240
   241  00089C  000A               	dw	10
   242  00089E  0100               	dw	256
   243  0008A0  01                 	db	1
   244  0008A1  02                 	db	2
   245  0008A2  00                 	db	0
   246  0008A3  01                 	db	1
   247  0008A4                     __end_of_device_dsc:
   248                           	opt callstack 0
   249  0008A4                     _sd000:
   250                           	opt callstack 0
   251  0008A4  04                 	db	4
   252  0008A5  03                 	db	3
   253  0008A6  0409               	dw	1033
   254  0008A8                     __end_of_sd000:
   255                           	opt callstack 0
   256  0008A8                     main@msg:
   257                           	opt callstack 0
   258  0008A8  31                 	db	49
   259  0008A9  0D                 	db	13
   260  0008AA  0A                 	db	10
   261  0008AB  00                 	db	0
   262  0008AC                     __end_ofmain@msg:
   263                           	opt callstack 0
   264  0000                     _UEP0bits	set	3952
   265  0000                     _IPR2bits	set	4002
   266  0000                     _UCON	set	3949
   267  0000                     _USTAT	set	3948
   268  0000                     _UIEbits	set	3945
   269  0000                     _UIRbits	set	3944
   270  0000                     _UADDR	set	3950
   271  0000                     _UIE	set	3945
   272  0000                     _UEIE	set	3947
   273  0000                     _UCFG	set	3951
   274  0000                     _UIR	set	3944
   275  0000                     _UEIR	set	3946
   276  0000                     _UCONbits	set	3949
   277  0000                     _PIR2bits	set	4001
   278  0000                     _PIE2bits	set	4000
   279  0000                     _INTCONbits	set	4082
   280  0000                     _PORTD	set	3971
   281  0000                     _PORTA	set	3968
   282  0000                     _TRISA	set	3986
   283  0000                     _TRISD	set	3989
   284  0000                     _TRISBbits	set	3987
   285  0000                     _ADCON1	set	4033
   286  0000                     _UEP1	set	3953
   287  0000                     _UEP0	set	3952
   288                           
   289                           ; #config settings
   290  0008AC  00                 	db	0	; dummy byte at the end
   291  0000                     
   292                           	psect	cinit
   293  002A2A                     __pcinit:
   294                           	opt callstack 0
   295  002A2A                     start_initialization:
   296                           	opt callstack 0
   297  002A2A                     __initialization:
   298                           	opt callstack 0
   299                           
   300                           ; Clear objects allocated to BANK0 (63 bytes)
   301  002A2A  EE00  F060         	lfsr	0,__pbssBANK0
   302  002A2E  0E3F               	movlw	63
   303  002A30                     clear_0:
   304  002A30  6AEE               	clrf	postinc0,c
   305  002A32  06E8               	decf	wreg,f,c
   306  002A34  E1FD               	bnz	clear_0
   307                           
   308                           ; Clear objects allocated to COMRAM (42 bytes)
   309  002A36  EE00  F001         	lfsr	0,__pbssCOMRAM
   310  002A3A  0E2A               	movlw	42
   311  002A3C                     clear_1:
   312  002A3C  6AEE               	clrf	postinc0,c
   313  002A3E  06E8               	decf	wreg,f,c
   314  002A40  E1FD               	bnz	clear_1
   315  002A42                     end_of_initialization:
   316                           	opt callstack 0
   317  002A42                     __end_of__initialization:
   318                           	opt callstack 0
   319  002A42  9054               	bcf	int$flags,0,c	;clear compiler interrupt flag (level 1)
   320  002A44  9254               	bcf	int$flags,1,c	;clear compiler interrupt flag (level 2)
   321  002A46  0E00               	movlw	low (__Lmediumconst shr (0+16))
   322  002A48  6EF8               	movwf	tblptru,c
   323  002A4A  0100               	movlb	0
   324  002A4C  EF67  F012         	goto	_main	;jump to C main() function
   325                           
   326                           	psect	bssCOMRAM
   327  000001                     __pbssCOMRAM:
   328                           	opt callstack 0
   329  000001                     _outPipes:
   330                           	opt callstack 0
   331  000001                     	ds	8
   332  000009                     _inPipes:
   333                           	opt callstack 0
   334  000009                     	ds	6
   335  00000F                     _pBDTEntryIn:
   336                           	opt callstack 0
   337  00000F                     	ds	6
   338  000015                     _CDCDataOutHandle:
   339                           	opt callstack 0
   340  000015                     	ds	2
   341  000017                     _pBDTEntryEP0OutNext:
   342                           	opt callstack 0
   343  000017                     	ds	2
   344  000019                     _pBDTEntryEP0OutCurrent:
   345                           	opt callstack 0
   346  000019                     	ds	2
   347  00001B                     _cdc_tx_len:
   348                           	opt callstack 0
   349  00001B                     	ds	1
   350  00001C                     _cdc_trf_state:
   351                           	opt callstack 0
   352  00001C                     	ds	1
   353  00001D                     _cdc_rx_len:
   354                           	opt callstack 0
   355  00001D                     	ds	1
   356  00001E                     _USBStatusStageEnabledFlag2:
   357                           	opt callstack 0
   358  00001E                     	ds	1
   359  00001F                     _USBStatusStageEnabledFlag1:
   360                           	opt callstack 0
   361  00001F                     	ds	1
   362  000020                     _USBDeferStatusStagePacket:
   363                           	opt callstack 0
   364  000020                     	ds	1
   365  000021                     _USBStatusStageTimeoutCounter:
   366                           	opt callstack 0
   367  000021                     	ds	1
   368  000022                     _BothEP0OutUOWNsSet:
   369                           	opt callstack 0
   370  000022                     	ds	1
   371  000023                     _endpoint_number:
   372                           	opt callstack 0
   373  000023                     	ds	1
   374  000024                     _USBBusIsSuspended:
   375                           	opt callstack 0
   376  000024                     	ds	1
   377  000025                     _RemoteWakeup:
   378                           	opt callstack 0
   379  000025                     	ds	1
   380  000026                     _controlTransferState:
   381                           	opt callstack 0
   382  000026                     	ds	1
   383  000027                     _shortPacketStatus:
   384                           	opt callstack 0
   385  000027                     	ds	1
   386  000028                     _USBDeviceState:
   387                           	opt callstack 0
   388  000028                     	ds	1
   389  000029                     _USTATcopy:
   390                           	opt callstack 0
   391  000029                     	ds	1
   392  00002A                     _USBActiveConfiguration:
   393                           	opt callstack 0
   394  00002A                     	ds	1
   395                           
   396                           	psect	bssBANK0
   397  000060                     __pbssBANK0:
   398                           	opt callstack 0
   399  000060                     _cdc_notice:
   400                           	opt callstack 0
   401  000060                     	ds	10
   402  00006A                     _pBDTEntryOut:
   403                           	opt callstack 0
   404  00006A                     	ds	6
   405  000070                     _BaudRateGen:
   406                           	opt callstack 0
   407  000070                     	ds	4
   408  000074                     _USB1msTickCount:
   409                           	opt callstack 0
   410  000074                     	ds	4
   411  000078                     _pCDCDst:
   412                           	opt callstack 0
   413  000078                     	ds	3
   414  00007B                     _pCDCSrc:
   415                           	opt callstack 0
   416  00007B                     	ds	3
   417  00007E                     _ep_data_out:
   418                           	opt callstack 0
   419  00007E                     	ds	3
   420  000081                     _ep_data_in:
   421                           	opt callstack 0
   422  000081                     	ds	3
   423  000084                     _CDCDataInHandle:
   424                           	opt callstack 0
   425  000084                     	ds	2
   426  000086                     _pDst:
   427                           	opt callstack 0
   428  000086                     	ds	2
   429  000088                     _control_signal_bitmap:
   430                           	opt callstack 0
   431  000088                     	ds	1
   432  000089                     _cdc_mem_type:
   433                           	opt callstack 0
   434  000089                     	ds	1
   435  00008A                     _USBTicksSinceSuspendEnd:
   436                           	opt callstack 0
   437  00008A                     	ds	1
   438  00008B                     _USBDeferOUTDataStagePackets:
   439                           	opt callstack 0
   440  00008B                     	ds	1
   441  00008C                     _USBDeferINDataStagePackets:
   442                           	opt callstack 0
   443  00008C                     	ds	1
   444  00008D                     _currentState:
   445                           	opt callstack 0
   446  00008D                     	ds	1
   447  00008E                     _dummy_encapsulated_cmd_response:
   448                           	opt callstack 0
   449  00008E                     	ds	8
   450  000096                     _line_coding:
   451                           	opt callstack 0
   452  000096                     	ds	7
   453  00009D                     _USBAlternateInterface:
   454                           	opt callstack 0
   455  00009D                     	ds	2
   456                           
   457                           	psect	cstackBANK0
   458  00009F                     __pcstackBANK0:
   459                           	opt callstack 0
   460  00009F                     ?_USBTransferOnePacket:
   461                           	opt callstack 0
   462  00009F                     USBTransferOnePacket@dir:
   463                           	opt callstack 0
   464  00009F                     _isUSBReady$299:
   465                           	opt callstack 0
   466  00009F                     putUSBUSART@data:
   467                           	opt callstack 0
   468  00009F                     memset@dest:
   469                           	opt callstack 0
   470                           
   471                           ; 2 bytes @ 0x0
   472  00009F                     	ds	1
   473  0000A0                     USBTransferOnePacket@data:
   474                           	opt callstack 0
   475                           
   476                           ; 2 bytes @ 0x1
   477  0000A0                     	ds	1
   478  0000A1                     putUSBUSART@length:
   479                           	opt callstack 0
   480  0000A1                     memset@c:
   481                           	opt callstack 0
   482                           
   483                           ; 2 bytes @ 0x2
   484  0000A1                     	ds	1
   485  0000A2                     USBTransferOnePacket@len:
   486                           	opt callstack 0
   487                           
   488                           ; 1 bytes @ 0x3
   489  0000A2                     	ds	1
   490  0000A3                     ??_USBTransferOnePacket:
   491  0000A3                     memset@n:
   492                           	opt callstack 0
   493                           
   494                           ; 2 bytes @ 0x4
   495  0000A3                     	ds	2
   496  0000A5                     ??_memset:
   497                           
   498                           ; 1 bytes @ 0x6
   499  0000A5                     	ds	2
   500  0000A7                     USBTransferOnePacket@ep:
   501                           	opt callstack 0
   502  0000A7                     memset@k:
   503                           	opt callstack 0
   504                           
   505                           ; 2 bytes @ 0x8
   506  0000A7                     	ds	1
   507  0000A8                     USBTransferOnePacket@handle:
   508                           	opt callstack 0
   509                           
   510                           ; 2 bytes @ 0x9
   511  0000A8                     	ds	1
   512  0000A9                     memset@s:
   513                           	opt callstack 0
   514                           
   515                           ; 2 bytes @ 0xA
   516  0000A9                     	ds	1
   517  0000AA                     CDCTxService@i:
   518                           	opt callstack 0
   519                           
   520                           ; 1 bytes @ 0xB
   521  0000AA                     	ds	1
   522  0000AB                     USBDeviceInit@i:
   523                           	opt callstack 0
   524  0000AB                     CDCTxService@byte_to_send:
   525                           	opt callstack 0
   526                           
   527                           ; 1 bytes @ 0xC
   528  0000AB                     	ds	1
   529  0000AC                     ??_main:
   530                           
   531                           ; 1 bytes @ 0xD
   532  0000AC                     	ds	1
   533  0000AD                     main@lastState:
   534                           	opt callstack 0
   535                           
   536                           ; 1 bytes @ 0xE
   537  0000AD                     	ds	1
   538                           
   539                           	psect	cstackCOMRAM
   540  00002B                     __pcstackCOMRAM:
   541                           	opt callstack 0
   542  00002B                     ??_USBStdGetDscHandler:
   543  00002B                     ??_USBStdGetStatusHandler:
   544  00002B                     ??_USBCheckCDCRequest:
   545  00002B                     ?i2_USBTransferOnePacket:
   546                           	opt callstack 0
   547  00002B                     USBConfigureEndpoint@direction:
   548                           	opt callstack 0
   549  00002B                     USBCtrlTrfTxService@byteToSend:
   550                           	opt callstack 0
   551  00002B                     USBCtrlTrfRxService@i:
   552                           	opt callstack 0
   553  00002B                     i2USBTransferOnePacket@dir:
   554                           	opt callstack 0
   555  00002B                     memcpy@d1:
   556                           	opt callstack 0
   557  00002B                     i2memset@dest:
   558                           	opt callstack 0
   559                           
   560                           ; 2 bytes @ 0x0
   561  00002B                     	ds	1
   562  00002C                     ??_USBConfigureEndpoint:
   563  00002C                     USBCtrlTrfRxService@byteToRead:
   564                           	opt callstack 0
   565  00002C                     USBCtrlTrfInHandler@lastDTS:
   566                           	opt callstack 0
   567  00002C                     i2USBTransferOnePacket@data:
   568                           	opt callstack 0
   569                           
   570                           ; 2 bytes @ 0x1
   571  00002C                     	ds	1
   572  00002D                     USBStdGetStatusHandler@p:
   573                           	opt callstack 0
   574  00002D                     memcpy@s1:
   575                           	opt callstack 0
   576  00002D                     i2memset@c:
   577                           	opt callstack 0
   578                           
   579                           ; 2 bytes @ 0x2
   580  00002D                     	ds	1
   581  00002E                     i2USBTransferOnePacket@len:
   582                           	opt callstack 0
   583                           
   584                           ; 1 bytes @ 0x3
   585  00002E                     	ds	1
   586  00002F                     ??i2_USBTransferOnePacket:
   587  00002F                     memcpy@n:
   588                           	opt callstack 0
   589  00002F                     i2memset@n:
   590                           	opt callstack 0
   591                           
   592                           ; 2 bytes @ 0x4
   593  00002F                     	ds	1
   594  000030                     USBConfigureEndpoint@EPNum:
   595                           	opt callstack 0
   596                           
   597                           ; 1 bytes @ 0x5
   598  000030                     	ds	1
   599  000031                     ??i2_memset:
   600  000031                     USBConfigureEndpoint@handle:
   601                           	opt callstack 0
   602  000031                     memcpy@d:
   603                           	opt callstack 0
   604                           
   605                           ; 2 bytes @ 0x6
   606  000031                     	ds	2
   607  000033                     USBEnableEndpoint@options:
   608                           	opt callstack 0
   609  000033                     i2USBTransferOnePacket@ep:
   610                           	opt callstack 0
   611  000033                     memcpy@s:
   612                           	opt callstack 0
   613  000033                     i2memset@k:
   614                           	opt callstack 0
   615                           
   616                           ; 2 bytes @ 0x8
   617  000033                     	ds	1
   618  000034                     USBEnableEndpoint@p:
   619                           	opt callstack 0
   620  000034                     i2USBTransferOnePacket@handle:
   621                           	opt callstack 0
   622                           
   623                           ; 2 bytes @ 0x9
   624  000034                     	ds	1
   625  000035                     memcpy@tmp:
   626                           	opt callstack 0
   627  000035                     i2memset@s:
   628                           	opt callstack 0
   629                           
   630                           ; 2 bytes @ 0xA
   631  000035                     	ds	1
   632  000036                     USBEnableEndpoint@ep:
   633                           	opt callstack 0
   634                           
   635                           ; 1 bytes @ 0xB
   636  000036                     	ds	1
   637  000037                     i2USBDeviceInit@i:
   638                           	opt callstack 0
   639  000037                     USER_USB_CALLBACK_EVENT_HANDLER@event:
   640                           	opt callstack 0
   641                           
   642                           ; 2 bytes @ 0xC
   643  000037                     	ds	2
   644  000039                     USER_USB_CALLBACK_EVENT_HANDLER@pdata:
   645                           	opt callstack 0
   646                           
   647                           ; 2 bytes @ 0xE
   648  000039                     	ds	2
   649  00003B                     USER_USB_CALLBACK_EVENT_HANDLER@size:
   650                           	opt callstack 0
   651                           
   652                           ; 2 bytes @ 0x10
   653  00003B                     	ds	2
   654  00003D                     ??_USER_USB_CALLBACK_EVENT_HANDLER:
   655                           
   656                           ; 1 bytes @ 0x12
   657  00003D                     	ds	2
   658  00003F                     ??_USBStdFeatureReqHandler:
   659  00003F                     USBStdSetCfgHandler@i:
   660                           	opt callstack 0
   661                           
   662                           ; 1 bytes @ 0x14
   663  00003F                     	ds	2
   664  000041                     USBStdFeatureReqHandler@pUEP:
   665                           	opt callstack 0
   666                           
   667                           ; 2 bytes @ 0x16
   668  000041                     	ds	2
   669  000043                     USBStdFeatureReqHandler@current_ep_data:
   670                           	opt callstack 0
   671                           
   672                           ; 1 bytes @ 0x18
   673  000043                     	ds	1
   674  000044                     USBStdFeatureReqHandler@p:
   675                           	opt callstack 0
   676                           
   677                           ; 2 bytes @ 0x19
   678  000044                     	ds	2
   679  000046                     ??_USBCheckStdRequest:
   680                           
   681                           ; 1 bytes @ 0x1B
   682  000046                     	ds	2
   683  000048                     ??_USBCtrlEPService:
   684  000048                     
   685                           ; 1 bytes @ 0x1D
   686  000048                     	ds	1
   687  000049                     USBDeviceTasks@i:
   688                           	opt callstack 0
   689                           
   690                           ; 1 bytes @ 0x1E
   691  000049                     	ds	1
   692  00004A                     ??_mainISR:
   693                           
   694                           ; 1 bytes @ 0x1F
   695  00004A                     	ds	10
   696                           
   697 ;;
   698 ;;Main: autosize = 0, tempsize = 1, incstack = 0, save=0
   699 ;;
   700 ;; *************** function _main *****************
   701 ;; Defined at:
   702 ;;		line 15 in file "main.c"
   703 ;; Parameters:    Size  Location     Type
   704 ;;		None
   705 ;; Auto vars:     Size  Location     Type
   706 ;;  lastState       1   14[BANK0 ] unsigned char 
   707 ;; Return value:  Size  Location     Type
   708 ;;                  1    wreg      void 
   709 ;; Registers used:
   710 ;;		wreg, fsr2l, fsr2h, status,2, status,0, tblptrl, tblptrh, tblptru, prodl, prodh, cstack
   711 ;; Tracked objects:
   712 ;;		On entry : 0/0
   713 ;;		On exit  : 0/0
   714 ;;		Unchanged: 0/0
   715 ;; Data sizes:     COMRAM   BANK0   BANK1   BANK2   BANK3  BANK4h  BANK4l   BANK5   BANK6   BANK7
   716 ;;      Params:         0       0       0       0       0       0       0       0       0       0
   717 ;;      Locals:         0       1       0       0       0       0       0       0       0       0
   718 ;;      Temps:          0       1       0       0       0       0       0       0       0       0
   719 ;;      Totals:         0       2       0       0       0       0       0       0       0       0
   720 ;;Total ram usage:        2 bytes
   721 ;; Hardware stack levels required when called:   14
   722 ;; This function calls:
   723 ;;		_CDCTxService
   724 ;;		_initUSBLib
   725 ;;		_isUSBReady
   726 ;;		_putUSBUSART
   727 ;; This function is called by:
   728 ;;		Startup code after reset
   729 ;; This function uses a non-reentrant model
   730 ;;
   731                           
   732                           	psect	text0
   733  0024CE                     __ptext0:
   734                           	opt callstack 0
   735  0024CE                     _main:
   736                           	opt callstack 17
   737  0024CE                     
   738                           ;main.c: 17:     ADCON1 = 0x0F;
   739  0024CE  0E0F               	movlw	15
   740  0024D0  6EC1               	movwf	193,c	;volatile
   741  0024D2                     
   742                           ;main.c: 18:     TRISBbits.TRISB0 = 1;
   743  0024D2  8093               	bsf	147,0,c	;volatile
   744                           
   745                           ;main.c: 19:     TRISD = 0x00;
   746  0024D4  0E00               	movlw	0
   747  0024D6  6E95               	movwf	149,c	;volatile
   748                           
   749                           ;main.c: 20:     TRISA = 0x00;
   750  0024D8  0E00               	movlw	0
   751  0024DA  6E92               	movwf	146,c	;volatile
   752                           
   753                           ;main.c: 21:     PORTA = 0x01;
   754  0024DC  0E01               	movlw	1
   755  0024DE  6E80               	movwf	128,c	;volatile
   756                           
   757                           ;main.c: 22:     PORTD = 0x00;
   758  0024E0  0E00               	movlw	0
   759  0024E2  6E83               	movwf	131,c	;volatile
   760  0024E4                     
   761                           ;main.c: 24:     initUSBLib();
   762  0024E4  EC28  F015         	call	_initUSBLib	;wreg free
   763  0024E8                     
   764                           ;main.c: 26:     unsigned char lastState = 0;
   765  0024E8  0E00               	movlw	0
   766  0024EA  0100               	movlb	0	; () banked
   767  0024EC  6FAD               	movwf	main@lastState& (0+255),b
   768  0024EE                     l36:
   769  0024EE  5081               	movf	3969,w,c	;# 
   770  0024F0  0B01               	andlw	1	;# 
   771  0024F2  6F8D               	movwf	_currentState,b	;# 
   772  0024F4                     
   773                           ;main.c: 35:         _delay((unsigned long)((10)*(48000000/4000.0)));
   774  0024F4  0E9C               	movlw	156
   775  0024F6  0100               	movlb	0	; () banked
   776  0024F8  6FAC               	movwf	??_main& (0+255),b
   777  0024FA  0ED7               	movlw	215
   778  0024FC                     u3687:
   779  0024FC  2EE8               	decfsz	wreg,f,c
   780  0024FE  D7FE               	bra	u3687
   781  002500  2FAC               	decfsz	??_main& (0+255),f,b
   782  002502  D7FC               	bra	u3687
   783  002504                     
   784                           ;main.c: 37:         if (currentState != lastState)
   785  002504  0100               	movlb	0	; () banked
   786  002506  51AD               	movf	main@lastState& (0+255),w,b
   787  002508  198D               	xorwf	_currentState& (0+255),w,b	;volatile
   788  00250A  B4D8               	btfsc	status,2,c
   789  00250C  EF8A  F012         	goto	u3591
   790  002510  EF8C  F012         	goto	u3590
   791  002514                     u3591:
   792  002514  EFB0  F012         	goto	l4565
   793  002518                     u3590:
   794  002518                     
   795                           ; BSR set to: 0
   796                           ;main.c: 38:         {;main.c: 39:             lastState = currentState;
   797  002518  C08D  F0AD         	movff	_currentState,main@lastState	;volatile
   798  00251C                     
   799                           ; BSR set to: 0
   800                           ;main.c: 41:             if (currentState)
   801  00251C  518D               	movf	_currentState& (0+255),w,b	;volatile
   802  00251E  B4D8               	btfsc	status,2,c
   803  002520  EF94  F012         	goto	u3601
   804  002524  EF96  F012         	goto	u3600
   805  002528                     u3601:
   806  002528  EFAF  F012         	goto	l38
   807  00252C                     u3600:
   808  00252C                     
   809                           ; BSR set to: 0
   810  00252C  0E77               	movlw	119	;# 
   811  00252E  6E83               	movwf	3971,c	;# 
   812  002530                     
   813                           ;main.c: 48:                 if (isUSBReady())
   814  002530  EC9A  F014         	call	_isUSBReady	;wreg free
   815  002534  0900               	iorlw	0
   816  002536  B4D8               	btfsc	status,2,c
   817  002538  EFA0  F012         	goto	u3611
   818  00253C  EFA2  F012         	goto	u3610
   819  002540                     u3611:
   820  002540  EFAB  F012         	goto	l4563
   821  002544                     u3610:
   822  002544                     
   823                           ;main.c: 49:                 {;main.c: 50:                     const char msg[] = "1\r\n
      +                          ";;main.c: 51:                     putUSBUSART((uint8_t*)msg, sizeof(msg) - 1);
   824  002544  0EA8               	movlw	low main@msg
   825  002546  0100               	movlb	0	; () banked
   826  002548  6F9F               	movwf	putUSBUSART@data& (0+255),b
   827  00254A  0E08               	movlw	high main@msg
   828  00254C  6FA0               	movwf	(putUSBUSART@data+1)& (0+255),b
   829  00254E  0E03               	movlw	3
   830  002550  6FA1               	movwf	putUSBUSART@length& (0+255),b
   831  002552  ECFF  F014         	call	_putUSBUSART	;wreg free
   832  002556                     l4563:
   833                           
   834                           ;main.c: 53:                 CDCTxService();
   835  002556  EC15  F007         	call	_CDCTxService	;wreg free
   836                           
   837                           ;main.c: 54:             }
   838  00255A  EFB0  F012         	goto	l4565
   839  00255E                     l38:
   840                           
   841                           ; BSR set to: 0
   842  00255E  6A83               	clrf	3971,c	;# 
   843  002560                     l4565:
   844                           
   845                           ;main.c: 62:         CDCTxService();
   846  002560  EC15  F007         	call	_CDCTxService	;wreg free
   847  002564  EF77  F012         	goto	l36
   848  002568  EF07  F000         	goto	start
   849  00256C                     __end_of_main:
   850                           	opt callstack 0
   851                           
   852 ;; *************** function _putUSBUSART *****************
   853 ;; Defined at:
   854 ;;		line 556 in file "usb_device_cdc.c"
   855 ;; Parameters:    Size  Location     Type
   856 ;;  data            2    0[BANK0 ] PTR unsigned char 
   857 ;;		 -> main@msg(4), 
   858 ;;  length          1    2[BANK0 ] unsigned char 
   859 ;; Auto vars:     Size  Location     Type
   860 ;;		None
   861 ;; Return value:  Size  Location     Type
   862 ;;                  1    wreg      void 
   863 ;; Registers used:
   864 ;;		wreg, status,2, status,0
   865 ;; Tracked objects:
   866 ;;		On entry : 0/0
   867 ;;		On exit  : 0/0
   868 ;;		Unchanged: 0/0
   869 ;; Data sizes:     COMRAM   BANK0   BANK1   BANK2   BANK3  BANK4h  BANK4l   BANK5   BANK6   BANK7
   870 ;;      Params:         0       3       0       0       0       0       0       0       0       0
   871 ;;      Locals:         0       0       0       0       0       0       0       0       0       0
   872 ;;      Temps:          0       0       0       0       0       0       0       0       0       0
   873 ;;      Totals:         0       3       0       0       0       0       0       0       0       0
   874 ;;Total ram usage:        3 bytes
   875 ;; Hardware stack levels used:    1
   876 ;; Hardware stack levels required when called:   11
   877 ;; This function calls:
   878 ;;		Nothing
   879 ;; This function is called by:
   880 ;;		_main
   881 ;; This function uses a non-reentrant model
   882 ;;
   883                           
   884                           	psect	text1
   885  0029FE                     __ptext1:
   886                           	opt callstack 0
   887  0029FE                     _putUSBUSART:
   888                           	opt callstack 19
   889  0029FE                     
   890                           ;usb_device_cdc.c: 556: void putUSBUSART(uint8_t *data, uint8_t length);usb_device_cdc.c
      +                          : 557: {;usb_device_cdc.c: 581:     {PIE2bits.USBIE = 0;};
   891  0029FE  9AA0               	bcf	160,5,c	;volatile
   892  002A00                     
   893                           ;usb_device_cdc.c: 582:     if(cdc_trf_state == 0)
   894  002A00  501C               	movf	_cdc_trf_state^0,w,c
   895  002A02  A4D8               	btfss	status,2,c
   896  002A04  EF06  F015         	goto	u3461
   897  002A08  EF08  F015         	goto	u3460
   898  002A0C                     u3461:
   899  002A0C  EF13  F015         	goto	l4473
   900  002A10                     u3460:
   901  002A10                     
   902                           ;usb_device_cdc.c: 583:     {;usb_device_cdc.c: 584:         { pCDCSrc.bRam = (uint8_t*)
      +                          data; cdc_tx_len = length; cdc_mem_type = 0x01; cdc_trf_state = 1; };
   903  002A10  C09F  F07B         	movff	putUSBUSART@data,_pCDCSrc
   904  002A14  C0A0  F07C         	movff	putUSBUSART@data+1,_pCDCSrc+1
   905  002A18  C0A1  F01B         	movff	putUSBUSART@length,_cdc_tx_len
   906  002A1C  0E01               	movlw	1
   907  002A1E  0100               	movlb	0	; () banked
   908  002A20  6F89               	movwf	_cdc_mem_type& (0+255),b
   909  002A22                     
   910                           ; BSR set to: 0
   911  002A22  0E01               	movlw	1
   912  002A24  6E1C               	movwf	_cdc_trf_state^0,c
   913  002A26                     l4473:
   914                           
   915                           ;usb_device_cdc.c: 586:     {PIE2bits.USBIE = 1;};
   916  002A26  8AA0               	bsf	160,5,c	;volatile
   917  002A28  0012               	return		;funcret
   918  002A2A                     __end_of_putUSBUSART:
   919                           	opt callstack 0
   920                           
   921 ;; *************** function _isUSBReady *****************
   922 ;; Defined at:
   923 ;;		line 31 in file "usb_cdc_lib.c"
   924 ;; Parameters:    Size  Location     Type
   925 ;;		None
   926 ;; Auto vars:     Size  Location     Type
   927 ;;		None
   928 ;; Return value:  Size  Location     Type
   929 ;;                  1    wreg      unsigned char 
   930 ;; Registers used:
   931 ;;		wreg, status,2, status,0
   932 ;; Tracked objects:
   933 ;;		On entry : 0/0
   934 ;;		On exit  : 0/0
   935 ;;		Unchanged: 0/0
   936 ;; Data sizes:     COMRAM   BANK0   BANK1   BANK2   BANK3  BANK4h  BANK4l   BANK5   BANK6   BANK7
   937 ;;      Params:         0       0       0       0       0       0       0       0       0       0
   938 ;;      Locals:         0       2       0       0       0       0       0       0       0       0
   939 ;;      Temps:          0       0       0       0       0       0       0       0       0       0
   940 ;;      Totals:         0       2       0       0       0       0       0       0       0       0
   941 ;;Total ram usage:        2 bytes
   942 ;; Hardware stack levels used:    1
   943 ;; Hardware stack levels required when called:   11
   944 ;; This function calls:
   945 ;;		Nothing
   946 ;; This function is called by:
   947 ;;		_main
   948 ;; This function uses a non-reentrant model
   949 ;;
   950                           
   951                           	psect	text2
   952  002934                     __ptext2:
   953                           	opt callstack 0
   954  002934                     _isUSBReady:
   955                           	opt callstack 19
   956  002934                     
   957                           ;usb_cdc_lib.c: 33:     return ((USBDeviceState < CONFIGURED_STATE) || (UCONbits.SUSPND 
      +                          == 1)) ? 0x00 : 0xFF;
   958  002934  0E1F               	movlw	31
   959  002936  6428               	cpfsgt	_USBDeviceState^0,c	;volatile
   960  002938  EFA0  F014         	goto	u3441
   961  00293C  EFA2  F014         	goto	u3440
   962  002940                     u3441:
   963  002940  EFAF  F014         	goto	l4457
   964  002944                     u3440:
   965  002944  B26D               	btfsc	109,1,c	;volatile
   966  002946  EFA7  F014         	goto	u3451
   967  00294A  EFA9  F014         	goto	u3450
   968  00294E                     u3451:
   969  00294E  EFAF  F014         	goto	l4457
   970  002952                     u3450:
   971  002952  0E00               	movlw	0
   972  002954  0100               	movlb	0	; () banked
   973  002956  6FA0               	movwf	(_isUSBReady$299+1)& (0+255),b
   974  002958  699F               	setf	_isUSBReady$299& (0+255),b
   975  00295A  EFB4  F014         	goto	l75
   976  00295E                     l4457:
   977  00295E  0E00               	movlw	0
   978  002960  0100               	movlb	0	; () banked
   979  002962  6FA0               	movwf	(_isUSBReady$299+1)& (0+255),b
   980  002964  0E00               	movlw	0
   981  002966  6F9F               	movwf	_isUSBReady$299& (0+255),b
   982  002968                     l75:
   983                           
   984                           ; BSR set to: 0
   985  002968  519F               	movf	_isUSBReady$299& (0+255),w,b
   986  00296A                     
   987                           ; BSR set to: 0
   988  00296A  0012               	return		;funcret
   989  00296C                     __end_of_isUSBReady:
   990                           	opt callstack 0
   991                           
   992 ;; *************** function _initUSBLib *****************
   993 ;; Defined at:
   994 ;;		line 10 in file "usb_cdc_lib.c"
   995 ;; Parameters:    Size  Location     Type
   996 ;;		None
   997 ;; Auto vars:     Size  Location     Type
   998 ;;		None
   999 ;; Return value:  Size  Location     Type
  1000 ;;                  1    wreg      void 
  1001 ;; Registers used:
  1002 ;;		wreg, fsr2l, fsr2h, status,2, status,0, prodl, prodh, cstack
  1003 ;; Tracked objects:
  1004 ;;		On entry : 0/0
  1005 ;;		On exit  : 0/0
  1006 ;;		Unchanged: 0/0
  1007 ;; Data sizes:     COMRAM   BANK0   BANK1   BANK2   BANK3  BANK4h  BANK4l   BANK5   BANK6   BANK7
  1008 ;;      Params:         0       0       0       0       0       0       0       0       0       0
  1009 ;;      Locals:         0       0       0       0       0       0       0       0       0       0
  1010 ;;      Temps:          0       0       0       0       0       0       0       0       0       0
  1011 ;;      Totals:         0       0       0       0       0       0       0       0       0       0
  1012 ;;Total ram usage:        0 bytes
  1013 ;; Hardware stack levels used:    1
  1014 ;; Hardware stack levels required when called:   13
  1015 ;; This function calls:
  1016 ;;		_USBDeviceAttach
  1017 ;;		_USBDeviceInit
  1018 ;; This function is called by:
  1019 ;;		_main
  1020 ;; This function uses a non-reentrant model
  1021 ;;
  1022                           
  1023                           	psect	text3
  1024  002A50                     __ptext3:
  1025                           	opt callstack 0
  1026  002A50                     _initUSBLib:
  1027                           	opt callstack 17
  1028  002A50                     
  1029                           ;usb_cdc_lib.c: 13:     INTCONbits.GIE = 1;
  1030  002A50  8EF2               	bsf	242,7,c	;volatile
  1031                           
  1032                           ;usb_cdc_lib.c: 14:     INTCONbits.PEIE = 1;
  1033  002A52  8CF2               	bsf	242,6,c	;volatile
  1034  002A54                     
  1035                           ;usb_cdc_lib.c: 16:     USBDeviceInit();
  1036  002A54  EC0A  F00A         	call	_USBDeviceInit	;wreg free
  1037  002A58                     
  1038                           ;usb_cdc_lib.c: 17:     USBDeviceAttach();
  1039  002A58  EC59  F014         	call	_USBDeviceAttach	;wreg free
  1040  002A5C  0012               	return		;funcret
  1041  002A5E                     __end_of_initUSBLib:
  1042                           	opt callstack 0
  1043                           
  1044 ;; *************** function _USBDeviceInit *****************
  1045 ;; Defined at:
  1046 ;;		line 281 in file "usb_device.c"
  1047 ;; Parameters:    Size  Location     Type
  1048 ;;		None
  1049 ;; Auto vars:     Size  Location     Type
  1050 ;;  i               1   12[BANK0 ] unsigned char 
  1051 ;; Return value:  Size  Location     Type
  1052 ;;                  1    wreg      void 
  1053 ;; Registers used:
  1054 ;;		wreg, fsr2l, fsr2h, status,2, status,0, prodl, prodh, cstack
  1055 ;; Tracked objects:
  1056 ;;		On entry : 0/0
  1057 ;;		On exit  : 0/0
  1058 ;;		Unchanged: 0/0
  1059 ;; Data sizes:     COMRAM   BANK0   BANK1   BANK2   BANK3  BANK4h  BANK4l   BANK5   BANK6   BANK7
  1060 ;;      Params:         0       0       0       0       0       0       0       0       0       0
  1061 ;;      Locals:         0       1       0       0       0       0       0       0       0       0
  1062 ;;      Temps:          0       0       0       0       0       0       0       0       0       0
  1063 ;;      Totals:         0       1       0       0       0       0       0       0       0       0
  1064 ;;Total ram usage:        1 bytes
  1065 ;; Hardware stack levels used:    1
  1066 ;; Hardware stack levels required when called:   12
  1067 ;; This function calls:
  1068 ;;		_memset
  1069 ;; This function is called by:
  1070 ;;		_initUSBLib
  1071 ;; This function uses a non-reentrant model
  1072 ;;
  1073                           
  1074                           	psect	text4
  1075  001414                     __ptext4:
  1076                           	opt callstack 0
  1077  001414                     _USBDeviceInit:
  1078                           	opt callstack 17
  1079  001414                     
  1080                           ;usb_device.c: 283:     uint8_t i;;usb_device.c: 285:     {PIE2bits.USBIE = 0;};
  1081  001414  9AA0               	bcf	160,5,c	;volatile
  1082  001416                     
  1083                           ;usb_device.c: 292:     {UEIR = 0;};
  1084  001416  0E00               	movlw	0
  1085  001418  6E6A               	movwf	106,c	;volatile
  1086                           
  1087                           ;usb_device.c: 295:     {UIR = 0;};
  1088  00141A  0E00               	movlw	0
  1089  00141C  6E68               	movwf	104,c	;volatile
  1090                           
  1091                           ;usb_device.c: 298:     UEP0 = 0;
  1092  00141E  0E00               	movlw	0
  1093  001420  6E70               	movwf	112,c	;volatile
  1094  001422                     
  1095                           ;usb_device.c: 300:     memset((void*)&UEP1,0x00,(2));;
  1096  001422  0E71               	movlw	113
  1097  001424  0100               	movlb	0	; () banked
  1098  001426  6F9F               	movwf	memset@dest& (0+255),b
  1099  001428  0E0F               	movlw	15
  1100  00142A  6FA0               	movwf	(memset@dest+1)& (0+255),b
  1101  00142C  0E00               	movlw	0
  1102  00142E  6FA2               	movwf	(memset@c+1)& (0+255),b
  1103  001430  0E00               	movlw	0
  1104  001432  6FA1               	movwf	memset@c& (0+255),b
  1105  001434  0E00               	movlw	0
  1106  001436  6FA4               	movwf	(memset@n+1)& (0+255),b
  1107  001438  0E02               	movlw	2
  1108  00143A  6FA3               	movwf	memset@n& (0+255),b
  1109  00143C  ECE3  F007         	call	_memset	;wreg free
  1110  001440                     
  1111                           ;usb_device.c: 302:     { UCFG = 0x10 | 0x00 | 0x04 | 0x02; UEIE = 0x9F; UIE = 0x39 | 0x
      +                          40 | 0x02; };
  1112  001440  0E16               	movlw	22
  1113  001442  6E6F               	movwf	111,c	;volatile
  1114  001444  0E9F               	movlw	159
  1115  001446  6E6B               	movwf	107,c	;volatile
  1116  001448  0E7B               	movlw	123
  1117  00144A  6E69               	movwf	105,c	;volatile
  1118  00144C                     
  1119                           ;usb_device.c: 311:     for(i = 0; i < (sizeof(BDT)/sizeof(BDT_ENTRY)); i++)
  1120  00144C  0E00               	movlw	0
  1121  00144E  0100               	movlb	0	; () banked
  1122  001450  6FAB               	movwf	USBDeviceInit@i& (0+255),b
  1123  001452                     l4347:
  1124                           
  1125                           ; BSR set to: 0
  1126                           ;usb_device.c: 312:     {;usb_device.c: 313:         BDT[i].Val = 0x00;
  1127  001452  51AB               	movf	USBDeviceInit@i& (0+255),w,b
  1128  001454  0D04               	mullw	4
  1129  001456  0E00               	movlw	0
  1130  001458  24F3               	addwf	243,w,c
  1131  00145A  6ED9               	movwf	fsr2l,c
  1132  00145C  0E04               	movlw	4
  1133  00145E  20F4               	addwfc	prodh,w,c
  1134  001460  6EDA               	movwf	fsr2h,c
  1135  001462  6ADE               	clrf	postinc2,c
  1136  001464  6ADE               	clrf	postinc2,c
  1137  001466  6ADE               	clrf	postinc2,c
  1138  001468  6ADD               	clrf	postdec2,c
  1139  00146A                     
  1140                           ; BSR set to: 0
  1141                           ;usb_device.c: 314:     }
  1142  00146A  2BAB               	incf	USBDeviceInit@i& (0+255),f,b
  1143  00146C                     
  1144                           ; BSR set to: 0
  1145  00146C  0E0B               	movlw	11
  1146  00146E  65AB               	cpfsgt	USBDeviceInit@i& (0+255),b
  1147  001470  EF3C  F00A         	goto	u3361
  1148  001474  EF3E  F00A         	goto	u3360
  1149  001478                     u3361:
  1150  001478  EF29  F00A         	goto	l4347
  1151  00147C                     u3360:
  1152  00147C                     
  1153                           ; BSR set to: 0
  1154                           ;usb_device.c: 317:     UCONbits.PPBRST = 1;
  1155  00147C  8C6D               	bsf	109,6,c	;volatile
  1156  00147E                     
  1157                           ; BSR set to: 0
  1158                           ;usb_device.c: 320:     UADDR = 0x00;
  1159  00147E  0E00               	movlw	0
  1160  001480  6E6E               	movwf	110,c	;volatile
  1161  001482                     
  1162                           ; BSR set to: 0
  1163                           ;usb_device.c: 323:     UCONbits.PKTDIS = 0;
  1164  001482  986D               	bcf	109,4,c	;volatile
  1165  001484                     
  1166                           ; BSR set to: 0
  1167                           ;usb_device.c: 326:     UCONbits.PPBRST = 0;
  1168  001484  9C6D               	bcf	109,6,c	;volatile
  1169  001486                     l4359:
  1170                           
  1171                           ;usb_device.c: 330:     {;usb_device.c: 331:         (UIR &= 0xF7);
  1172  001486  9668               	bcf	104,3,c	;volatile
  1173  001488                     
  1174                           ;usb_device.c: 333:         inPipes[0].info.Val = 0;
  1175  001488  0E00               	movlw	0
  1176  00148A  6E0C               	movwf	(_inPipes+3)^0,c	;volatile
  1177  00148C                     
  1178                           ;usb_device.c: 334:         outPipes[0].info.Val = 0;
  1179  00148C  0E00               	movlw	0
  1180  00148E  6E04               	movwf	(_outPipes+3)^0,c	;volatile
  1181  001490                     
  1182                           ;usb_device.c: 335:         outPipes[0].wCount.Val = 0;
  1183  001490  0E00               	movlw	0
  1184  001492  6E06               	movwf	(_outPipes+5)^0,c	;volatile
  1185  001494  0E00               	movlw	0
  1186  001496  6E05               	movwf	(_outPipes+4)^0,c	;volatile
  1187  001498                     
  1188                           ;usb_device.c: 336:     }while(UIRbits.TRNIF == 1);
  1189  001498  B668               	btfsc	104,3,c	;volatile
  1190  00149A  EF51  F00A         	goto	u3371
  1191  00149E  EF53  F00A         	goto	u3370
  1192  0014A2                     u3371:
  1193  0014A2  EF43  F00A         	goto	l4359
  1194  0014A6                     u3370:
  1195  0014A6                     
  1196                           ;usb_device.c: 340:     USBStatusStageEnabledFlag1 = 1;
  1197  0014A6  0E01               	movlw	1
  1198  0014A8  6E1F               	movwf	_USBStatusStageEnabledFlag1^0,c	;volatile
  1199                           
  1200                           ;usb_device.c: 341:     USBStatusStageEnabledFlag2 = 1;
  1201  0014AA  0E01               	movlw	1
  1202  0014AC  6E1E               	movwf	_USBStatusStageEnabledFlag2^0,c	;volatile
  1203                           
  1204                           ;usb_device.c: 343:     USBDeferINDataStagePackets = 0;
  1205  0014AE  0E00               	movlw	0
  1206  0014B0  0100               	movlb	0	; () banked
  1207  0014B2  6F8C               	movwf	_USBDeferINDataStagePackets& (0+255),b	;volatile
  1208                           
  1209                           ;usb_device.c: 344:     USBDeferOUTDataStagePackets = 0;
  1210  0014B4  0E00               	movlw	0
  1211  0014B6  6F8B               	movwf	_USBDeferOUTDataStagePackets& (0+255),b	;volatile
  1212                           
  1213                           ;usb_device.c: 345:     USBBusIsSuspended = 0;
  1214  0014B8  0E00               	movlw	0
  1215  0014BA  6E24               	movwf	_USBBusIsSuspended^0,c	;volatile
  1216                           
  1217                           ;usb_device.c: 349:     for(i = 0; i < (uint8_t)(2 +1u); i++)
  1218  0014BC  0E00               	movlw	0
  1219  0014BE  6FAB               	movwf	USBDeviceInit@i& (0+255),b
  1220  0014C0                     l4375:
  1221                           
  1222                           ; BSR set to: 0
  1223                           ;usb_device.c: 350:     {;usb_device.c: 351:         pBDTEntryIn[i] = 0u;
  1224  0014C0  51AB               	movf	USBDeviceInit@i& (0+255),w,b
  1225  0014C2  0D02               	mullw	2
  1226  0014C4  0E0F               	movlw	low _pBDTEntryIn
  1227  0014C6  24F3               	addwf	243,w,c
  1228  0014C8  6ED9               	movwf	fsr2l,c
  1229  0014CA  0E00               	movlw	high _pBDTEntryIn
  1230  0014CC  20F4               	addwfc	prodh,w,c
  1231  0014CE  6EDA               	movwf	fsr2h,c
  1232  0014D0  0E00               	movlw	0
  1233  0014D2  6EDE               	movwf	postinc2,c
  1234  0014D4  0E00               	movlw	0
  1235  0014D6  6EDD               	movwf	postdec2,c
  1236                           
  1237                           ;usb_device.c: 352:         pBDTEntryOut[i] = 0u;
  1238  0014D8  51AB               	movf	USBDeviceInit@i& (0+255),w,b
  1239  0014DA  0D02               	mullw	2
  1240  0014DC  0E6A               	movlw	low _pBDTEntryOut
  1241  0014DE  24F3               	addwf	243,w,c
  1242  0014E0  6ED9               	movwf	fsr2l,c
  1243  0014E2  0E00               	movlw	high _pBDTEntryOut
  1244  0014E4  20F4               	addwfc	prodh,w,c
  1245  0014E6  6EDA               	movwf	fsr2h,c
  1246  0014E8  0E00               	movlw	0
  1247  0014EA  6EDE               	movwf	postinc2,c
  1248  0014EC  0E00               	movlw	0
  1249  0014EE  6EDD               	movwf	postdec2,c
  1250  0014F0                     
  1251                           ; BSR set to: 0
  1252                           ;usb_device.c: 353:         ep_data_in[i].Val = 0u;
  1253  0014F0  0E81               	movlw	low _ep_data_in
  1254  0014F2  25AB               	addwf	USBDeviceInit@i& (0+255),w,b
  1255  0014F4  6ED9               	movwf	fsr2l,c
  1256  0014F6  6ADA               	clrf	fsr2h,c
  1257  0014F8  0E00               	movlw	high _ep_data_in
  1258  0014FA  22DA               	addwfc	fsr2h,f,c
  1259  0014FC  0E00               	movlw	0
  1260  0014FE  6EDF               	movwf	indf2,c
  1261  001500                     
  1262                           ; BSR set to: 0
  1263                           ;usb_device.c: 354:         ep_data_out[i].Val = 0u;
  1264  001500  0E7E               	movlw	low _ep_data_out
  1265  001502  25AB               	addwf	USBDeviceInit@i& (0+255),w,b
  1266  001504  6ED9               	movwf	fsr2l,c
  1267  001506  6ADA               	clrf	fsr2h,c
  1268  001508  0E00               	movlw	high _ep_data_out
  1269  00150A  22DA               	addwfc	fsr2h,f,c
  1270  00150C  0E00               	movlw	0
  1271  00150E  6EDF               	movwf	indf2,c
  1272  001510                     
  1273                           ; BSR set to: 0
  1274                           ;usb_device.c: 355:     }
  1275  001510  2BAB               	incf	USBDeviceInit@i& (0+255),f,b
  1276  001512                     
  1277                           ; BSR set to: 0
  1278  001512  0E02               	movlw	2
  1279  001514  65AB               	cpfsgt	USBDeviceInit@i& (0+255),b
  1280  001516  EF8F  F00A         	goto	u3381
  1281  00151A  EF91  F00A         	goto	u3380
  1282  00151E                     u3381:
  1283  00151E  EF60  F00A         	goto	l4375
  1284  001522                     u3380:
  1285  001522                     
  1286                           ; BSR set to: 0
  1287                           ;usb_device.c: 358:     pBDTEntryIn[0] = (volatile BDT_ENTRY*)&BDT[2];
  1288  001522  0E08               	movlw	8
  1289  001524  6E0F               	movwf	_pBDTEntryIn^0,c
  1290  001526  0E04               	movlw	4
  1291  001528  6E10               	movwf	(_pBDTEntryIn+1)^0,c
  1292  00152A                     
  1293                           ; BSR set to: 0
  1294                           ;usb_device.c: 360:     UEP0 = 0x06|0x10;
  1295  00152A  0E16               	movlw	22
  1296  00152C  6E70               	movwf	112,c	;volatile
  1297  00152E                     
  1298                           ; BSR set to: 0
  1299                           ;usb_device.c: 362:     BDT[0].ADR = ((uint16_t)(&SetupPkt));
  1300  00152E  0E04               	movlw	4
  1301  001530  0104               	movlb	4	; () banked
  1302  001532  6F03               	movwf	3,b	;volatile
  1303  001534  0E30               	movlw	48
  1304  001536  6F02               	movwf	2,b	;volatile
  1305  001538                     
  1306                           ; BSR set to: 4
  1307                           ;usb_device.c: 363:     BDT[0].CNT = 32;
  1308  001538  0E20               	movlw	32
  1309  00153A  6F01               	movwf	1,b	;volatile
  1310  00153C                     
  1311                           ; BSR set to: 4
  1312                           ;usb_device.c: 364:     BDT[0].STAT.Val = 0x00|0x04;
  1313  00153C  0E04               	movlw	4
  1314  00153E  6F00               	movwf	0,b	;volatile
  1315  001540                     
  1316                           ; BSR set to: 4
  1317                           ;usb_device.c: 365:     BDT[0].STAT.Val |= 0x80;
  1318  001540  8F00               	bsf	0,7,b	;volatile
  1319  001542                     
  1320                           ; BSR set to: 4
  1321                           ;usb_device.c: 368:     USBActiveConfiguration = 0;
  1322  001542  0E00               	movlw	0
  1323  001544  6E2A               	movwf	_USBActiveConfiguration^0,c	;volatile
  1324  001546                     
  1325                           ; BSR set to: 4
  1326                           ;usb_device.c: 370:     USB1msTickCount = 0;
  1327  001546  0E00               	movlw	0
  1328  001548  0100               	movlb	0	; () banked
  1329  00154A  6F74               	movwf	_USB1msTickCount& (0+255),b	;volatile
  1330  00154C  0E00               	movlw	0
  1331  00154E  6F75               	movwf	(_USB1msTickCount+1)& (0+255),b	;volatile
  1332  001550  0E00               	movlw	0
  1333  001552  6F76               	movwf	(_USB1msTickCount+2)& (0+255),b	;volatile
  1334  001554  0E00               	movlw	0
  1335  001556  6F77               	movwf	(_USB1msTickCount+3)& (0+255),b	;volatile
  1336  001558                     
  1337                           ; BSR set to: 0
  1338                           ;usb_device.c: 371:     USBTicksSinceSuspendEnd = 0;
  1339  001558  0E00               	movlw	0
  1340  00155A  6F8A               	movwf	_USBTicksSinceSuspendEnd& (0+255),b	;volatile
  1341  00155C                     
  1342                           ; BSR set to: 0
  1343                           ;usb_device.c: 374:     USBDeviceState = DETACHED_STATE;
  1344  00155C  0E00               	movlw	0
  1345  00155E  6E28               	movwf	_USBDeviceState^0,c	;volatile
  1346  001560                     
  1347                           ; BSR set to: 0
  1348  001560  0012               	return		;funcret
  1349  001562                     __end_of_USBDeviceInit:
  1350                           	opt callstack 0
  1351                           
  1352 ;; *************** function _memset *****************
  1353 ;; Defined at:
  1354 ;;		line 4 in file "C:\Program Files (x86)\Microchip\xc8\v2.10\pic\sources\c99\common\memset.c"
  1355 ;; Parameters:    Size  Location     Type
  1356 ;;  dest            2    0[BANK0 ] PTR void 
  1357 ;;		 -> USBAlternateInterface(2), BDT(48), UEP1(1), 
  1358 ;;  c               2    2[BANK0 ] int 
  1359 ;;  n               2    4[BANK0 ] unsigned int 
  1360 ;; Auto vars:     Size  Location     Type
  1361 ;;  s               2   10[BANK0 ] PTR unsigned char 
  1362 ;;		 -> USBAlternateInterface(2), BDT(48), UEP1(1), 
  1363 ;;  k               2    8[BANK0 ] unsigned int 
  1364 ;; Return value:  Size  Location     Type
  1365 ;;                  2    0[BANK0 ] PTR void 
  1366 ;; Registers used:
  1367 ;;		wreg, fsr2l, fsr2h, status,2, status,0
  1368 ;; Tracked objects:
  1369 ;;		On entry : 0/0
  1370 ;;		On exit  : 0/0
  1371 ;;		Unchanged: 0/0
  1372 ;; Data sizes:     COMRAM   BANK0   BANK1   BANK2   BANK3  BANK4h  BANK4l   BANK5   BANK6   BANK7
  1373 ;;      Params:         0       6       0       0       0       0       0       0       0       0
  1374 ;;      Locals:         0       4       0       0       0       0       0       0       0       0
  1375 ;;      Temps:          0       2       0       0       0       0       0       0       0       0
  1376 ;;      Totals:         0      12       0       0       0       0       0       0       0       0
  1377 ;;Total ram usage:       12 bytes
  1378 ;; Hardware stack levels used:    1
  1379 ;; Hardware stack levels required when called:   11
  1380 ;; This function calls:
  1381 ;;		Nothing
  1382 ;; This function is called by:
  1383 ;;		_USBDeviceInit
  1384 ;; This function uses a non-reentrant model
  1385 ;;
  1386                           
  1387                           	psect	text5
  1388  000FC6                     __ptext5:
  1389                           	opt callstack 0
  1390  000FC6                     _memset:
  1391                           	opt callstack 17
  1392  000FC6  C09F  F0A9         	movff	memset@dest,memset@s
  1393  000FCA  C0A0  F0AA         	movff	memset@dest+1,memset@s+1
  1394  000FCE  0100               	movlb	0	; () banked
  1395  000FD0  51A3               	movf	memset@n& (0+255),w,b
  1396  000FD2  11A4               	iorwf	(memset@n+1)& (0+255),w,b
  1397  000FD4  A4D8               	btfss	status,2,c
  1398  000FD6  EFEF  F007         	goto	u3311
  1399  000FDA  EFF1  F007         	goto	u3310
  1400  000FDE                     u3311:
  1401  000FDE  EFF3  F007         	goto	l4301
  1402  000FE2                     u3310:
  1403  000FE2  EF9E  F008         	goto	l1305
  1404  000FE6                     l4301:
  1405                           
  1406                           ; BSR set to: 0
  1407  000FE6  C0A9  FFD9         	movff	memset@s,fsr2l
  1408  000FEA  C0AA  FFDA         	movff	memset@s+1,fsr2h
  1409  000FEE  C0A1  FFDF         	movff	memset@c,indf2
  1410  000FF2                     
  1411                           ; BSR set to: 0
  1412  000FF2  51A3               	movf	memset@n& (0+255),w,b
  1413  000FF4  25A9               	addwf	memset@s& (0+255),w,b
  1414  000FF6  6FA5               	movwf	??_memset& (0+255),b
  1415  000FF8  51A4               	movf	(memset@n+1)& (0+255),w,b
  1416  000FFA  21AA               	addwfc	(memset@s+1)& (0+255),w,b
  1417  000FFC  6FA6               	movwf	(??_memset+1)& (0+255),b
  1418  000FFE  0EFF               	movlw	255
  1419  001000  25A5               	addwf	??_memset& (0+255),w,b
  1420  001002  6ED9               	movwf	fsr2l,c
  1421  001004  0EFF               	movlw	255
  1422  001006  21A6               	addwfc	(??_memset+1)& (0+255),w,b
  1423  001008  6EDA               	movwf	fsr2h,c
  1424  00100A  C0A1  FFDF         	movff	memset@c,indf2
  1425  00100E  51A4               	movf	(memset@n+1)& (0+255),w,b
  1426  001010  E107               	bnz	u3321
  1427  001012  0E03               	movlw	3
  1428  001014  5DA3               	subwf	memset@n& (0+255),w,b
  1429  001016  B0D8               	btfsc	status,0,c
  1430  001018  EF10  F008         	goto	u3321
  1431  00101C  EF12  F008         	goto	u3320
  1432  001020                     u3321:
  1433  001020  EF14  F008         	goto	l4307
  1434  001024                     u3320:
  1435  001024  EF9E  F008         	goto	l1305
  1436  001028                     l4307:
  1437                           
  1438                           ; BSR set to: 0
  1439  001028  EE20 F001          	lfsr	2,1
  1440  00102C  51A9               	movf	memset@s& (0+255),w,b
  1441  00102E  26D9               	addwf	fsr2l,f,c
  1442  001030  51AA               	movf	(memset@s+1)& (0+255),w,b
  1443  001032  22DA               	addwfc	fsr2h,f,c
  1444  001034  C0A1  FFDF         	movff	memset@c,indf2
  1445  001038  EE20 F002          	lfsr	2,2
  1446  00103C  51A9               	movf	memset@s& (0+255),w,b
  1447  00103E  26D9               	addwf	fsr2l,f,c
  1448  001040  51AA               	movf	(memset@s+1)& (0+255),w,b
  1449  001042  22DA               	addwfc	fsr2h,f,c
  1450  001044  C0A1  FFDF         	movff	memset@c,indf2
  1451  001048  51A3               	movf	memset@n& (0+255),w,b
  1452  00104A  25A9               	addwf	memset@s& (0+255),w,b
  1453  00104C  6FA5               	movwf	??_memset& (0+255),b
  1454  00104E  51A4               	movf	(memset@n+1)& (0+255),w,b
  1455  001050  21AA               	addwfc	(memset@s+1)& (0+255),w,b
  1456  001052  6FA6               	movwf	(??_memset+1)& (0+255),b
  1457  001054  0EFE               	movlw	254
  1458  001056  25A5               	addwf	??_memset& (0+255),w,b
  1459  001058  6ED9               	movwf	fsr2l,c
  1460  00105A  0EFF               	movlw	255
  1461  00105C  21A6               	addwfc	(??_memset+1)& (0+255),w,b
  1462  00105E  6EDA               	movwf	fsr2h,c
  1463  001060  C0A1  FFDF         	movff	memset@c,indf2
  1464  001064  51A3               	movf	memset@n& (0+255),w,b
  1465  001066  25A9               	addwf	memset@s& (0+255),w,b
  1466  001068  6FA5               	movwf	??_memset& (0+255),b
  1467  00106A  51A4               	movf	(memset@n+1)& (0+255),w,b
  1468  00106C  21AA               	addwfc	(memset@s+1)& (0+255),w,b
  1469  00106E  6FA6               	movwf	(??_memset+1)& (0+255),b
  1470  001070  0EFD               	movlw	253
  1471  001072  25A5               	addwf	??_memset& (0+255),w,b
  1472  001074  6ED9               	movwf	fsr2l,c
  1473  001076  0EFF               	movlw	255
  1474  001078  21A6               	addwfc	(??_memset+1)& (0+255),w,b
  1475  00107A  6EDA               	movwf	fsr2h,c
  1476  00107C  C0A1  FFDF         	movff	memset@c,indf2
  1477  001080                     
  1478                           ; BSR set to: 0
  1479  001080  51A4               	movf	(memset@n+1)& (0+255),w,b
  1480  001082  E107               	bnz	u3331
  1481  001084  0E07               	movlw	7
  1482  001086  5DA3               	subwf	memset@n& (0+255),w,b
  1483  001088  B0D8               	btfsc	status,0,c
  1484  00108A  EF49  F008         	goto	u3331
  1485  00108E  EF4B  F008         	goto	u3330
  1486  001092                     u3331:
  1487  001092  EF4D  F008         	goto	l4313
  1488  001096                     u3330:
  1489  001096  EF9E  F008         	goto	l1305
  1490  00109A                     l4313:
  1491                           
  1492                           ; BSR set to: 0
  1493  00109A  EE20 F003          	lfsr	2,3
  1494  00109E  51A9               	movf	memset@s& (0+255),w,b
  1495  0010A0  26D9               	addwf	fsr2l,f,c
  1496  0010A2  51AA               	movf	(memset@s+1)& (0+255),w,b
  1497  0010A4  22DA               	addwfc	fsr2h,f,c
  1498  0010A6  C0A1  FFDF         	movff	memset@c,indf2
  1499  0010AA  51A3               	movf	memset@n& (0+255),w,b
  1500  0010AC  25A9               	addwf	memset@s& (0+255),w,b
  1501  0010AE  6FA5               	movwf	??_memset& (0+255),b
  1502  0010B0  51A4               	movf	(memset@n+1)& (0+255),w,b
  1503  0010B2  21AA               	addwfc	(memset@s+1)& (0+255),w,b
  1504  0010B4  6FA6               	movwf	(??_memset+1)& (0+255),b
  1505  0010B6  0EFC               	movlw	252
  1506  0010B8  25A5               	addwf	??_memset& (0+255),w,b
  1507  0010BA  6ED9               	movwf	fsr2l,c
  1508  0010BC  0EFF               	movlw	255
  1509  0010BE  21A6               	addwfc	(??_memset+1)& (0+255),w,b
  1510  0010C0  6EDA               	movwf	fsr2h,c
  1511  0010C2  C0A1  FFDF         	movff	memset@c,indf2
  1512  0010C6                     
  1513                           ; BSR set to: 0
  1514  0010C6  51A4               	movf	(memset@n+1)& (0+255),w,b
  1515  0010C8  E107               	bnz	u3341
  1516  0010CA  0E09               	movlw	9
  1517  0010CC  5DA3               	subwf	memset@n& (0+255),w,b
  1518  0010CE  B0D8               	btfsc	status,0,c
  1519  0010D0  EF6C  F008         	goto	u3341
  1520  0010D4  EF6E  F008         	goto	u3340
  1521  0010D8                     u3341:
  1522  0010D8  EF70  F008         	goto	l4319
  1523  0010DC                     u3340:
  1524  0010DC  EF9E  F008         	goto	l1305
  1525  0010E0                     l4319:
  1526                           
  1527                           ; BSR set to: 0
  1528  0010E0  C0A9  F0A5         	movff	memset@s,??_memset
  1529  0010E4  C0AA  F0A6         	movff	memset@s+1,??_memset+1
  1530  0010E8  1FA5               	comf	??_memset& (0+255),f,b
  1531  0010EA  1FA6               	comf	(??_memset+1)& (0+255),f,b
  1532  0010EC  4BA5               	infsnz	??_memset& (0+255),f,b
  1533  0010EE  2BA6               	incf	(??_memset+1)& (0+255),f,b
  1534  0010F0  0E03               	movlw	3
  1535  0010F2  15A5               	andwf	??_memset& (0+255),w,b
  1536  0010F4  6FA7               	movwf	memset@k& (0+255),b
  1537  0010F6  6BA8               	clrf	(memset@k+1)& (0+255),b
  1538  0010F8  51A7               	movf	memset@k& (0+255),w,b
  1539  0010FA  27A9               	addwf	memset@s& (0+255),f,b
  1540  0010FC  51A8               	movf	(memset@k+1)& (0+255),w,b
  1541  0010FE  23AA               	addwfc	(memset@s+1)& (0+255),f,b
  1542  001100  51A7               	movf	memset@k& (0+255),w,b
  1543  001102  5FA3               	subwf	memset@n& (0+255),f,b
  1544  001104  51A8               	movf	(memset@k+1)& (0+255),w,b
  1545  001106  5BA4               	subwfb	(memset@n+1)& (0+255),f,b
  1546  001108  0EFC               	movlw	252
  1547  00110A  17A3               	andwf	memset@n& (0+255),f,b
  1548  00110C  0EFF               	movlw	255
  1549  00110E  17A4               	andwf	(memset@n+1)& (0+255),f,b
  1550  001110  EF95  F008         	goto	l4327
  1551  001114                     l4321:
  1552                           
  1553                           ; BSR set to: 0
  1554  001114  C0A9  FFD9         	movff	memset@s,fsr2l
  1555  001118  C0AA  FFDA         	movff	memset@s+1,fsr2h
  1556  00111C  C0A1  FFDF         	movff	memset@c,indf2
  1557  001120                     
  1558                           ; BSR set to: 0
  1559  001120  07A3               	decf	memset@n& (0+255),f,b
  1560  001122  A0D8               	btfss	status,0,c
  1561  001124  07A4               	decf	(memset@n+1)& (0+255),f,b
  1562  001126                     
  1563                           ; BSR set to: 0
  1564  001126  4BA9               	infsnz	memset@s& (0+255),f,b
  1565  001128  2BAA               	incf	(memset@s+1)& (0+255),f,b
  1566  00112A                     l4327:
  1567                           
  1568                           ; BSR set to: 0
  1569  00112A  51A3               	movf	memset@n& (0+255),w,b
  1570  00112C  11A4               	iorwf	(memset@n+1)& (0+255),w,b
  1571  00112E  A4D8               	btfss	status,2,c
  1572  001130  EF9C  F008         	goto	u3351
  1573  001134  EF9E  F008         	goto	u3350
  1574  001138                     u3351:
  1575  001138  EF8A  F008         	goto	l4321
  1576  00113C                     u3350:
  1577  00113C                     l1305:
  1578                           
  1579                           ; BSR set to: 0
  1580  00113C  0012               	return		;funcret
  1581  00113E                     __end_of_memset:
  1582                           	opt callstack 0
  1583                           
  1584 ;; *************** function _USBDeviceAttach *****************
  1585 ;; Defined at:
  1586 ;;		line 1358 in file "usb_device.c"
  1587 ;; Parameters:    Size  Location     Type
  1588 ;;		None
  1589 ;; Auto vars:     Size  Location     Type
  1590 ;;		None
  1591 ;; Return value:  Size  Location     Type
  1592 ;;                  1    wreg      void 
  1593 ;; Registers used:
  1594 ;;		wreg, status,2
  1595 ;; Tracked objects:
  1596 ;;		On entry : 0/0
  1597 ;;		On exit  : 0/0
  1598 ;;		Unchanged: 0/0
  1599 ;; Data sizes:     COMRAM   BANK0   BANK1   BANK2   BANK3  BANK4h  BANK4l   BANK5   BANK6   BANK7
  1600 ;;      Params:         0       0       0       0       0       0       0       0       0       0
  1601 ;;      Locals:         0       0       0       0       0       0       0       0       0       0
  1602 ;;      Temps:          0       0       0       0       0       0       0       0       0       0
  1603 ;;      Totals:         0       0       0       0       0       0       0       0       0       0
  1604 ;;Total ram usage:        0 bytes
  1605 ;; Hardware stack levels used:    1
  1606 ;; Hardware stack levels required when called:   11
  1607 ;; This function calls:
  1608 ;;		Nothing
  1609 ;; This function is called by:
  1610 ;;		_initUSBLib
  1611 ;; This function uses a non-reentrant model
  1612 ;;
  1613                           
  1614                           	psect	text6
  1615  0028B2                     __ptext6:
  1616                           	opt callstack 0
  1617  0028B2                     _USBDeviceAttach:
  1618                           	opt callstack 18
  1619  0028B2                     
  1620                           ;usb_device.c: 1362:     {;usb_device.c: 1363:         if(1 == 1)
  1621  0028B2  5028               	movf	_USBDeviceState^0,w,c	;volatile
  1622  0028B4  A4D8               	btfss	status,2,c
  1623  0028B6  EF5F  F014         	goto	u3391
  1624  0028BA  EF61  F014         	goto	u3390
  1625  0028BE                     u3391:
  1626  0028BE  EF79  F014         	goto	l289
  1627  0028C2                     u3390:
  1628  0028C2                     
  1629                           ;usb_device.c: 1364:         {;usb_device.c: 1366:             UCON = 0;
  1630  0028C2  0E00               	movlw	0
  1631  0028C4  6E6D               	movwf	109,c	;volatile
  1632                           
  1633                           ;usb_device.c: 1369:             UIE = 0;
  1634  0028C6  0E00               	movlw	0
  1635  0028C8  6E69               	movwf	105,c	;volatile
  1636                           
  1637                           ;usb_device.c: 1373:             { UCFG = 0x10 | 0x00 | 0x04 | 0x02; UEIE = 0x9F; UIE = 
      +                          0x39 | 0x40 | 0x02; };
  1638  0028CA  0E16               	movlw	22
  1639  0028CC  6E6F               	movwf	111,c	;volatile
  1640  0028CE  0E9F               	movlw	159
  1641  0028D0  6E6B               	movwf	107,c	;volatile
  1642  0028D2  0E7B               	movlw	123
  1643  0028D4  6E69               	movwf	105,c	;volatile
  1644  0028D6                     
  1645                           ;usb_device.c: 1375:             {IPR2bits.USBIP = 1;PIE2bits.USBIE = 1;};
  1646  0028D6  8AA2               	bsf	162,5,c	;volatile
  1647  0028D8  8AA0               	bsf	160,5,c	;volatile
  1648                           
  1649                           ;usb_device.c: 1378:             while(!UCONbits.USBEN){UCONbits.USBEN = 1;}
  1650  0028DA  EF70  F014         	goto	l286
  1651  0028DE                     l287:
  1652  0028DE  866D               	bsf	109,3,c	;volatile
  1653  0028E0                     l286:
  1654  0028E0  A66D               	btfss	109,3,c	;volatile
  1655  0028E2  EF75  F014         	goto	u3401
  1656  0028E6  EF77  F014         	goto	u3400
  1657  0028EA                     u3401:
  1658  0028EA  EF6F  F014         	goto	l287
  1659  0028EE                     u3400:
  1660  0028EE                     
  1661                           ;usb_device.c: 1381:             USBDeviceState = ATTACHED_STATE;
  1662  0028EE  0E01               	movlw	1
  1663  0028F0  6E28               	movwf	_USBDeviceState^0,c	;volatile
  1664  0028F2                     l289:
  1665  0028F2  0012               	return		;funcret
  1666  0028F4                     __end_of_USBDeviceAttach:
  1667                           	opt callstack 0
  1668                           
  1669 ;; *************** function _CDCTxService *****************
  1670 ;; Defined at:
  1671 ;;		line 836 in file "usb_device_cdc.c"
  1672 ;; Parameters:    Size  Location     Type
  1673 ;;		None
  1674 ;; Auto vars:     Size  Location     Type
  1675 ;;  byte_to_send    1   12[BANK0 ] unsigned char 
  1676 ;;  i               1   11[BANK0 ] unsigned char 
  1677 ;; Return value:  Size  Location     Type
  1678 ;;                  1    wreg      void 
  1679 ;; Registers used:
  1680 ;;		wreg, fsr2l, fsr2h, status,2, status,0, tblptrl, tblptrh, tblptru, prodl, prodh, cstack
  1681 ;; Tracked objects:
  1682 ;;		On entry : 0/0
  1683 ;;		On exit  : 0/0
  1684 ;;		Unchanged: 0/0
  1685 ;; Data sizes:     COMRAM   BANK0   BANK1   BANK2   BANK3  BANK4h  BANK4l   BANK5   BANK6   BANK7
  1686 ;;      Params:         0       0       0       0       0       0       0       0       0       0
  1687 ;;      Locals:         0       2       0       0       0       0       0       0       0       0
  1688 ;;      Temps:          0       0       0       0       0       0       0       0       0       0
  1689 ;;      Totals:         0       2       0       0       0       0       0       0       0       0
  1690 ;;Total ram usage:        2 bytes
  1691 ;; Hardware stack levels used:    1
  1692 ;; Hardware stack levels required when called:   12
  1693 ;; This function calls:
  1694 ;;		_USBTransferOnePacket
  1695 ;; This function is called by:
  1696 ;;		_main
  1697 ;; This function uses a non-reentrant model
  1698 ;;
  1699                           
  1700                           	psect	text7
  1701  000E2A                     __ptext7:
  1702                           	opt callstack 0
  1703  000E2A                     _CDCTxService:
  1704                           	opt callstack 18
  1705  000E2A                     
  1706                           ;usb_device_cdc.c: 838:     uint8_t byte_to_send;;usb_device_cdc.c: 839:     uint8_t i;;
      +                          usb_device_cdc.c: 841:     {PIE2bits.USBIE = 0;};
  1707  000E2A  9AA0               	bcf	160,5,c	;volatile
  1708  000E2C                     
  1709                           ;usb_device_cdc.c: 843:     {};;usb_device_cdc.c: 845:     if(((CDCDataInHandle != 0x000
      +                          0) && ((*(volatile uint8_t*)CDCDataInHandle & 0x80) != 0x00)))
  1710  000E2C  0100               	movlb	0	; () banked
  1711  000E2E  5184               	movf	_CDCDataInHandle& (0+255),w,b
  1712  000E30  1185               	iorwf	(_CDCDataInHandle+1)& (0+255),w,b
  1713  000E32  B4D8               	btfsc	status,2,c
  1714  000E34  EF1E  F007         	goto	u3471
  1715  000E38  EF20  F007         	goto	u3470
  1716  000E3C                     u3471:
  1717  000E3C  EF2E  F007         	goto	l4483
  1718  000E40                     u3470:
  1719  000E40                     
  1720                           ; BSR set to: 0
  1721  000E40  C084  FFD9         	movff	_CDCDataInHandle,fsr2l
  1722  000E44  C085  FFDA         	movff	_CDCDataInHandle+1,fsr2h
  1723  000E48  AEDF               	btfss	indf2,7,c
  1724  000E4A  EF29  F007         	goto	u3481
  1725  000E4E  EF2B  F007         	goto	u3480
  1726  000E52                     u3481:
  1727  000E52  EF2E  F007         	goto	l4483
  1728  000E56                     u3480:
  1729  000E56                     
  1730                           ; BSR set to: 0
  1731                           ;usb_device_cdc.c: 846:     {;usb_device_cdc.c: 847:         {PIE2bits.USBIE = 1;};
  1732  000E56  8AA0               	bsf	160,5,c	;volatile
  1733                           
  1734                           ;usb_device_cdc.c: 848:         return;
  1735  000E58  EFE2  F007         	goto	l584
  1736  000E5C                     l4483:
  1737                           
  1738                           ; BSR set to: 0
  1739                           ;usb_device_cdc.c: 856:     if(cdc_trf_state == 3)
  1740  000E5C  0E03               	movlw	3
  1741  000E5E  181C               	xorwf	_cdc_trf_state^0,w,c
  1742  000E60  A4D8               	btfss	status,2,c
  1743  000E62  EF35  F007         	goto	u3491
  1744  000E66  EF37  F007         	goto	u3490
  1745  000E6A                     u3491:
  1746  000E6A  EF39  F007         	goto	l585
  1747  000E6E                     u3490:
  1748  000E6E                     
  1749                           ; BSR set to: 0
  1750                           ;usb_device_cdc.c: 857:         cdc_trf_state = 0;
  1751  000E6E  0E00               	movlw	0
  1752  000E70  6E1C               	movwf	_cdc_trf_state^0,c
  1753  000E72                     l585:
  1754                           
  1755                           ; BSR set to: 0
  1756                           ;usb_device_cdc.c: 862:     if(cdc_trf_state == 0)
  1757  000E72  501C               	movf	_cdc_trf_state^0,w,c
  1758  000E74  A4D8               	btfss	status,2,c
  1759  000E76  EF3F  F007         	goto	u3501
  1760  000E7A  EF41  F007         	goto	u3500
  1761  000E7E                     u3501:
  1762  000E7E  EF44  F007         	goto	l4489
  1763  000E82                     u3500:
  1764  000E82                     
  1765                           ; BSR set to: 0
  1766                           ;usb_device_cdc.c: 863:     {;usb_device_cdc.c: 864:         {PIE2bits.USBIE = 1;};
  1767  000E82  8AA0               	bsf	160,5,c	;volatile
  1768                           
  1769                           ;usb_device_cdc.c: 865:         return;
  1770  000E84  EFE2  F007         	goto	l584
  1771  000E88                     l4489:
  1772                           
  1773                           ; BSR set to: 0
  1774                           ;usb_device_cdc.c: 871:     if(cdc_trf_state == 2)
  1775  000E88  0E02               	movlw	2
  1776  000E8A  181C               	xorwf	_cdc_trf_state^0,w,c
  1777  000E8C  A4D8               	btfss	status,2,c
  1778  000E8E  EF4B  F007         	goto	u3511
  1779  000E92  EF4D  F007         	goto	u3510
  1780  000E96                     u3511:
  1781  000E96  EF60  F007         	goto	l4495
  1782  000E9A                     u3510:
  1783  000E9A                     
  1784                           ; BSR set to: 0
  1785                           ;usb_device_cdc.c: 872:     {;usb_device_cdc.c: 873:         CDCDataInHandle = USBTransf
      +                          erOnePacket(2,1,((void*)0),0);
  1786  000E9A  0E01               	movlw	1
  1787  000E9C  6F9F               	movwf	USBTransferOnePacket@dir& (0+255),b
  1788  000E9E  0E00               	movlw	0
  1789  000EA0  6FA0               	movwf	USBTransferOnePacket@data& (0+255),b
  1790  000EA2  0E00               	movlw	0
  1791  000EA4  6FA1               	movwf	(USBTransferOnePacket@data+1)& (0+255),b
  1792  000EA6  0E00               	movlw	0
  1793  000EA8  6FA2               	movwf	USBTransferOnePacket@len& (0+255),b
  1794  000EAA  0E02               	movlw	2
  1795  000EAC  ECF8  F00B         	call	_USBTransferOnePacket
  1796  000EB0  C09F  F084         	movff	?_USBTransferOnePacket,_CDCDataInHandle
  1797  000EB4  C0A0  F085         	movff	?_USBTransferOnePacket+1,_CDCDataInHandle+1
  1798  000EB8                     
  1799                           ;usb_device_cdc.c: 875:         cdc_trf_state = 3;
  1800  000EB8  0E03               	movlw	3
  1801  000EBA  6E1C               	movwf	_cdc_trf_state^0,c
  1802                           
  1803                           ;usb_device_cdc.c: 876:     }
  1804  000EBC  EFE1  F007         	goto	l4539
  1805  000EC0                     l4495:
  1806                           
  1807                           ; BSR set to: 0
  1808  000EC0  041C               	decf	_cdc_trf_state^0,w,c
  1809  000EC2  A4D8               	btfss	status,2,c
  1810  000EC4  EF66  F007         	goto	u3521
  1811  000EC8  EF68  F007         	goto	u3520
  1812  000ECC                     u3521:
  1813  000ECC  EFE1  F007         	goto	l4539
  1814  000ED0                     u3520:
  1815  000ED0                     
  1816                           ; BSR set to: 0
  1817                           ;usb_device_cdc.c: 878:     {;usb_device_cdc.c: 882:      if(cdc_tx_len > sizeof(cdc_dat
      +                          a_tx))
  1818  000ED0  0E40               	movlw	64
  1819  000ED2  641B               	cpfsgt	_cdc_tx_len^0,c
  1820  000ED4  EF6E  F007         	goto	u3531
  1821  000ED8  EF70  F007         	goto	u3530
  1822  000EDC                     u3531:
  1823  000EDC  EF74  F007         	goto	l590
  1824  000EE0                     u3530:
  1825  000EE0                     
  1826                           ; BSR set to: 0
  1827                           ;usb_device_cdc.c: 883:          byte_to_send = sizeof(cdc_data_tx);
  1828  000EE0  0E40               	movlw	64
  1829  000EE2  6FAB               	movwf	CDCTxService@byte_to_send& (0+255),b
  1830  000EE4  EF76  F007         	goto	l4501
  1831  000EE8                     l590:
  1832                           
  1833                           ; BSR set to: 0
  1834                           ;usb_device_cdc.c: 885:          byte_to_send = cdc_tx_len;
  1835  000EE8  C01B  F0AB         	movff	_cdc_tx_len,CDCTxService@byte_to_send
  1836  000EEC                     l4501:
  1837                           
  1838                           ; BSR set to: 0
  1839                           ;usb_device_cdc.c: 890:      cdc_tx_len = cdc_tx_len - byte_to_send;
  1840  000EEC  51AB               	movf	CDCTxService@byte_to_send& (0+255),w,b
  1841  000EEE  5C1B               	subwf	_cdc_tx_len^0,w,c
  1842  000EF0  6E1B               	movwf	_cdc_tx_len^0,c
  1843                           
  1844                           ;usb_device_cdc.c: 892:         pCDCDst.bRam = (uint8_t*)&cdc_data_tx;
  1845  000EF2  0E00               	movlw	0
  1846  000EF4  6F78               	movwf	_pCDCDst& (0+255),b
  1847  000EF6  0E05               	movlw	5
  1848  000EF8  6F79               	movwf	(_pCDCDst+1)& (0+255),b
  1849  000EFA                     
  1850                           ; BSR set to: 0
  1851                           ;usb_device_cdc.c: 894:         i = byte_to_send;
  1852  000EFA  C0AB  F0AA         	movff	CDCTxService@byte_to_send,CDCTxService@i
  1853  000EFE                     
  1854                           ; BSR set to: 0
  1855                           ;usb_device_cdc.c: 895:         if(cdc_mem_type == 0x00)
  1856  000EFE  5189               	movf	_cdc_mem_type& (0+255),w,b
  1857  000F00  A4D8               	btfss	status,2,c
  1858  000F02  EF85  F007         	goto	u3541
  1859  000F06  EF87  F007         	goto	u3540
  1860  000F0A                     u3541:
  1861  000F0A  EFB3  F007         	goto	l4527
  1862  000F0E                     u3540:
  1863  000F0E  EF99  F007         	goto	l4517
  1864  000F12                     l4509:
  1865                           
  1866                           ; BSR set to: 0
  1867                           ;usb_device_cdc.c: 898:             {;usb_device_cdc.c: 899:                 *pCDCDst.bR
      +                          am = *pCDCSrc.bRom;
  1868  000F12  C07B  FFF6         	movff	_pCDCSrc,tblptrl
  1869  000F16  C07C  FFF7         	movff	_pCDCSrc+1,tblptrh
  1870  000F1A                     	if	0	;tblptru may be non-zero
  1871  000F1A                     	endif
  1872  000F1A                     	if	0	;tblptru may be non-zero
  1873  000F1A                     	endif
  1874  000F1A  C078  FFD9         	movff	_pCDCDst,fsr2l
  1875  000F1E  C079  FFDA         	movff	_pCDCDst+1,fsr2h
  1876  000F22  0008               	tblrd		*
  1877  000F24  CFF5 FFDF          	movff	tablat,indf2
  1878  000F28                     
  1879                           ; BSR set to: 0
  1880                           ;usb_device_cdc.c: 900:                 pCDCDst.bRam++;
  1881  000F28  4B78               	infsnz	_pCDCDst& (0+255),f,b
  1882  000F2A  2B79               	incf	(_pCDCDst+1)& (0+255),f,b
  1883  000F2C                     
  1884                           ; BSR set to: 0
  1885                           ;usb_device_cdc.c: 901:                 pCDCSrc.bRom++;
  1886  000F2C  4B7B               	infsnz	_pCDCSrc& (0+255),f,b
  1887  000F2E  2B7C               	incf	(_pCDCSrc+1)& (0+255),f,b
  1888  000F30                     
  1889                           ; BSR set to: 0
  1890                           ;usb_device_cdc.c: 902:                 i--;
  1891  000F30  07AA               	decf	CDCTxService@i& (0+255),f,b
  1892  000F32                     l4517:
  1893                           
  1894                           ; BSR set to: 0
  1895                           ;usb_device_cdc.c: 897:             while(i)
  1896  000F32  51AA               	movf	CDCTxService@i& (0+255),w,b
  1897  000F34  A4D8               	btfss	status,2,c
  1898  000F36  EF9F  F007         	goto	u3551
  1899  000F3A  EFA1  F007         	goto	u3550
  1900  000F3E                     u3551:
  1901  000F3E  EF89  F007         	goto	l4509
  1902  000F42                     u3550:
  1903  000F42  EFBB  F007         	goto	l4529
  1904  000F46                     l4519:
  1905                           
  1906                           ; BSR set to: 0
  1907                           ;usb_device_cdc.c: 908:             {;usb_device_cdc.c: 909:                 *pCDCDst.bR
      +                          am = *pCDCSrc.bRam;
  1908  000F46  C07B  FFF6         	movff	_pCDCSrc,tblptrl
  1909  000F4A  C07C  FFF7         	movff	_pCDCSrc+1,tblptrh
  1910  000F4E                     	if	0	;tblptru may be non-zero
  1911  000F4E                     	endif
  1912  000F4E                     	if	0	;tblptru may be non-zero
  1913  000F4E                     	endif
  1914  000F4E  C078  FFD9         	movff	_pCDCDst,fsr2l
  1915  000F52  C079  FFDA         	movff	_pCDCDst+1,fsr2h
  1916  000F56  0008               	tblrd		*
  1917  000F58  CFF5 FFDF          	movff	tablat,indf2
  1918  000F5C                     
  1919                           ; BSR set to: 0
  1920                           ;usb_device_cdc.c: 910:                 pCDCDst.bRam++;
  1921  000F5C  4B78               	infsnz	_pCDCDst& (0+255),f,b
  1922  000F5E  2B79               	incf	(_pCDCDst+1)& (0+255),f,b
  1923  000F60                     
  1924                           ; BSR set to: 0
  1925                           ;usb_device_cdc.c: 911:                 pCDCSrc.bRam++;
  1926  000F60  4B7B               	infsnz	_pCDCSrc& (0+255),f,b
  1927  000F62  2B7C               	incf	(_pCDCSrc+1)& (0+255),f,b
  1928  000F64                     
  1929                           ; BSR set to: 0
  1930                           ;usb_device_cdc.c: 912:                 i--;
  1931  000F64  07AA               	decf	CDCTxService@i& (0+255),f,b
  1932  000F66                     l4527:
  1933                           
  1934                           ; BSR set to: 0
  1935                           ;usb_device_cdc.c: 907:             while(i)
  1936  000F66  51AA               	movf	CDCTxService@i& (0+255),w,b
  1937  000F68  A4D8               	btfss	status,2,c
  1938  000F6A  EFB9  F007         	goto	u3561
  1939  000F6E  EFBB  F007         	goto	u3560
  1940  000F72                     u3561:
  1941  000F72  EFA3  F007         	goto	l4519
  1942  000F76                     u3560:
  1943  000F76                     l4529:
  1944                           
  1945                           ; BSR set to: 0
  1946                           ;usb_device_cdc.c: 920:         if(cdc_tx_len == 0)
  1947  000F76  501B               	movf	_cdc_tx_len^0,w,c
  1948  000F78  A4D8               	btfss	status,2,c
  1949  000F7A  EFC1  F007         	goto	u3571
  1950  000F7E  EFC3  F007         	goto	u3570
  1951  000F82                     u3571:
  1952  000F82  EFD2  F007         	goto	l4537
  1953  000F86                     u3570:
  1954  000F86                     
  1955                           ; BSR set to: 0
  1956                           ;usb_device_cdc.c: 921:         {;usb_device_cdc.c: 922:             if(byte_to_send == 
      +                          64)
  1957  000F86  0E40               	movlw	64
  1958  000F88  19AB               	xorwf	CDCTxService@byte_to_send& (0+255),w,b
  1959  000F8A  A4D8               	btfss	status,2,c
  1960  000F8C  EFCA  F007         	goto	u3581
  1961  000F90  EFCC  F007         	goto	u3580
  1962  000F94                     u3581:
  1963  000F94  EFD0  F007         	goto	l4535
  1964  000F98                     u3580:
  1965  000F98                     
  1966                           ; BSR set to: 0
  1967                           ;usb_device_cdc.c: 923:                 cdc_trf_state = 2;
  1968  000F98  0E02               	movlw	2
  1969  000F9A  6E1C               	movwf	_cdc_trf_state^0,c
  1970  000F9C  EFD2  F007         	goto	l4537
  1971  000FA0                     l4535:
  1972                           
  1973                           ; BSR set to: 0
  1974                           ;usb_device_cdc.c: 925:                 cdc_trf_state = 3;
  1975  000FA0  0E03               	movlw	3
  1976  000FA2  6E1C               	movwf	_cdc_trf_state^0,c
  1977  000FA4                     l4537:
  1978                           
  1979                           ; BSR set to: 0
  1980                           ;usb_device_cdc.c: 927:         CDCDataInHandle = USBTransferOnePacket(2,1,(uint8_t*)&cd
      +                          c_data_tx,byte_to_send);
  1981  000FA4  0E01               	movlw	1
  1982  000FA6  6F9F               	movwf	USBTransferOnePacket@dir& (0+255),b
  1983  000FA8  0E00               	movlw	0
  1984  000FAA  6FA0               	movwf	USBTransferOnePacket@data& (0+255),b
  1985  000FAC  0E05               	movlw	5
  1986  000FAE  6FA1               	movwf	(USBTransferOnePacket@data+1)& (0+255),b
  1987  000FB0  C0AB  F0A2         	movff	CDCTxService@byte_to_send,USBTransferOnePacket@len
  1988  000FB4  0E02               	movlw	2
  1989  000FB6  ECF8  F00B         	call	_USBTransferOnePacket
  1990  000FBA  C09F  F084         	movff	?_USBTransferOnePacket,_CDCDataInHandle
  1991  000FBE  C0A0  F085         	movff	?_USBTransferOnePacket+1,_CDCDataInHandle+1
  1992  000FC2                     l4539:
  1993                           
  1994                           ;usb_device_cdc.c: 931:     {PIE2bits.USBIE = 1;};
  1995  000FC2  8AA0               	bsf	160,5,c	;volatile
  1996  000FC4                     l584:
  1997  000FC4  0012               	return		;funcret
  1998  000FC6                     __end_of_CDCTxService:
  1999                           	opt callstack 0
  2000                           
  2001 ;; *************** function _USBTransferOnePacket *****************
  2002 ;; Defined at:
  2003 ;;		line 1001 in file "usb_device.c"
  2004 ;; Parameters:    Size  Location     Type
  2005 ;;  ep              1    wreg     unsigned char 
  2006 ;;  dir             1    0[BANK0 ] unsigned char 
  2007 ;;  data            2    1[BANK0 ] PTR unsigned char 
  2008 ;;		 -> cdc_data_tx(64), cdc_data_rx(64), NULL(0), 
  2009 ;;  len             1    3[BANK0 ] unsigned char 
  2010 ;; Auto vars:     Size  Location     Type
  2011 ;;  ep              1    8[BANK0 ] unsigned char 
  2012 ;;  handle          2    9[BANK0 ] PTR volatile struct __BD
  2013 ;;		 -> RAM(2047), NULL(0), BDT(48), 
  2014 ;; Return value:  Size  Location     Type
  2015 ;;                  2    0[BANK0 ] PTR void 
  2016 ;; Registers used:
  2017 ;;		wreg, fsr2l, fsr2h, status,2, status,0, prodl, prodh
  2018 ;; Tracked objects:
  2019 ;;		On entry : 0/0
  2020 ;;		On exit  : 0/0
  2021 ;;		Unchanged: 0/0
  2022 ;; Data sizes:     COMRAM   BANK0   BANK1   BANK2   BANK3  BANK4h  BANK4l   BANK5   BANK6   BANK7
  2023 ;;      Params:         0       4       0       0       0       0       0       0       0       0
  2024 ;;      Locals:         0       3       0       0       0       0       0       0       0       0
  2025 ;;      Temps:          0       4       0       0       0       0       0       0       0       0
  2026 ;;      Totals:         0      11       0       0       0       0       0       0       0       0
  2027 ;;Total ram usage:       11 bytes
  2028 ;; Hardware stack levels used:    1
  2029 ;; Hardware stack levels required when called:   11
  2030 ;; This function calls:
  2031 ;;		Nothing
  2032 ;; This function is called by:
  2033 ;;		_CDCTxService
  2034 ;;		_USBCDCEventHandler
  2035 ;;		_getsUSBUSART
  2036 ;; This function uses a non-reentrant model
  2037 ;;
  2038                           
  2039                           	psect	text8
  2040  0017F0                     __ptext8:
  2041                           	opt callstack 0
  2042  0017F0                     _USBTransferOnePacket:
  2043                           	opt callstack 18
  2044                           
  2045                           ;incstack = 0
  2046                           ;USBTransferOnePacket@ep stored from wreg
  2047  0017F0  0100               	movlb	0	; () banked
  2048  0017F2  6FA7               	movwf	USBTransferOnePacket@ep& (0+255),b
  2049  0017F4                     
  2050                           ;usb_device.c: 1001: void* USBTransferOnePacket(uint8_t ep,uint8_t dir,uint8_t* data,uin
      +                          t8_t len);usb_device.c: 1002: {;usb_device.c: 1003:     volatile BDT_ENTRY* handle;;usb_
      +                          device.c: 1006:     if(dir != 0)
  2051  0017F4  0100               	movlb	0	; () banked
  2052  0017F6  519F               	movf	USBTransferOnePacket@dir& (0+255),w,b
  2053  0017F8  B4D8               	btfsc	status,2,c
  2054  0017FA  EF01  F00C         	goto	u3411
  2055  0017FE  EF03  F00C         	goto	u3410
  2056  001802                     u3411:
  2057  001802  EF11  F00C         	goto	l4419
  2058  001806                     u3410:
  2059  001806                     
  2060                           ; BSR set to: 0
  2061                           ;usb_device.c: 1007:     {;usb_device.c: 1009:         handle = pBDTEntryIn[ep];
  2062  001806  51A7               	movf	USBTransferOnePacket@ep& (0+255),w,b
  2063  001808  0D02               	mullw	2
  2064  00180A  0E0F               	movlw	low _pBDTEntryIn
  2065  00180C  24F3               	addwf	243,w,c
  2066  00180E  6ED9               	movwf	fsr2l,c
  2067  001810  0E00               	movlw	high _pBDTEntryIn
  2068  001812  20F4               	addwfc	prodh,w,c
  2069  001814  6EDA               	movwf	fsr2h,c
  2070  001816  CFDE F0A8          	movff	postinc2,USBTransferOnePacket@handle
  2071  00181A  CFDD F0A9          	movff	postdec2,USBTransferOnePacket@handle+1
  2072                           
  2073                           ;usb_device.c: 1010:     }
  2074  00181E  EF1D  F00C         	goto	l4421
  2075  001822                     l4419:
  2076                           
  2077                           ; BSR set to: 0
  2078                           ;usb_device.c: 1012:     {;usb_device.c: 1014:         handle = pBDTEntryOut[ep];
  2079  001822  51A7               	movf	USBTransferOnePacket@ep& (0+255),w,b
  2080  001824  0D02               	mullw	2
  2081  001826  0E6A               	movlw	low _pBDTEntryOut
  2082  001828  24F3               	addwf	243,w,c
  2083  00182A  6ED9               	movwf	fsr2l,c
  2084  00182C  0E00               	movlw	high _pBDTEntryOut
  2085  00182E  20F4               	addwfc	prodh,w,c
  2086  001830  6EDA               	movwf	fsr2h,c
  2087  001832  CFDE F0A8          	movff	postinc2,USBTransferOnePacket@handle
  2088  001836  CFDD F0A9          	movff	postdec2,USBTransferOnePacket@handle+1
  2089  00183A                     l4421:
  2090                           
  2091                           ; BSR set to: 0
  2092                           ;usb_device.c: 1019:     if(handle == 0)
  2093  00183A  51A8               	movf	USBTransferOnePacket@handle& (0+255),w,b
  2094  00183C  11A9               	iorwf	(USBTransferOnePacket@handle+1)& (0+255),w,b
  2095  00183E  A4D8               	btfss	status,2,c
  2096  001840  EF24  F00C         	goto	u3421
  2097  001844  EF26  F00C         	goto	u3420
  2098  001848                     u3421:
  2099  001848  EF2C  F00C         	goto	l4427
  2100  00184C                     u3420:
  2101  00184C                     
  2102                           ; BSR set to: 0
  2103                           ;usb_device.c: 1020:     {;usb_device.c: 1021:         return 0;
  2104  00184C  0E00               	movlw	0
  2105  00184E  6F9F               	movwf	?_USBTransferOnePacket& (0+255),b
  2106  001850  0E00               	movlw	0
  2107  001852  6FA0               	movwf	(?_USBTransferOnePacket+1)& (0+255),b
  2108  001854  EF98  F00C         	goto	l267
  2109  001858                     l4427:
  2110                           
  2111                           ; BSR set to: 0
  2112                           ;usb_device.c: 1035:     handle->ADR = ((uint16_t)(data));
  2113  001858  EE20 F002          	lfsr	2,2
  2114  00185C  51A8               	movf	USBTransferOnePacket@handle& (0+255),w,b
  2115  00185E  26D9               	addwf	fsr2l,f,c
  2116  001860  51A9               	movf	(USBTransferOnePacket@handle+1)& (0+255),w,b
  2117  001862  22DA               	addwfc	fsr2h,f,c
  2118  001864  C0A0  FFDE         	movff	USBTransferOnePacket@data,postinc2
  2119  001868  C0A1  FFDD         	movff	USBTransferOnePacket@data+1,postdec2
  2120                           
  2121                           ;usb_device.c: 1036:     handle->CNT = len;
  2122  00186C  EE20 F001          	lfsr	2,1
  2123  001870  51A8               	movf	USBTransferOnePacket@handle& (0+255),w,b
  2124  001872  26D9               	addwf	fsr2l,f,c
  2125  001874  51A9               	movf	(USBTransferOnePacket@handle+1)& (0+255),w,b
  2126  001876  22DA               	addwfc	fsr2h,f,c
  2127  001878  C0A2  FFDF         	movff	USBTransferOnePacket@len,indf2
  2128  00187C                     
  2129                           ; BSR set to: 0
  2130                           ;usb_device.c: 1037:     handle->STAT.Val &= 0x40;
  2131  00187C  C0A8  FFD9         	movff	USBTransferOnePacket@handle,fsr2l
  2132  001880  C0A9  FFDA         	movff	USBTransferOnePacket@handle+1,fsr2h
  2133  001884  0E40               	movlw	64
  2134  001886  16DF               	andwf	indf2,f,c
  2135  001888                     
  2136                           ; BSR set to: 0
  2137                           ;usb_device.c: 1038:     handle->STAT.Val |= (0x08 & 0x08);
  2138  001888  C0A8  FFD9         	movff	USBTransferOnePacket@handle,fsr2l
  2139  00188C  C0A9  FFDA         	movff	USBTransferOnePacket@handle+1,fsr2h
  2140  001890  0E00               	movlw	0
  2141  001892  86DB               	bsf	plusw2,3,c
  2142  001894                     
  2143                           ; BSR set to: 0
  2144                           ;usb_device.c: 1039:     handle->STAT.Val |= 0x80;
  2145  001894  C0A8  FFD9         	movff	USBTransferOnePacket@handle,fsr2l
  2146  001898  C0A9  FFDA         	movff	USBTransferOnePacket@handle+1,fsr2h
  2147  00189C  0E00               	movlw	0
  2148  00189E  8EDB               	bsf	plusw2,7,c
  2149  0018A0                     
  2150                           ; BSR set to: 0
  2151                           ;usb_device.c: 1042:     if(dir != 0)
  2152  0018A0  519F               	movf	USBTransferOnePacket@dir& (0+255),w,b
  2153  0018A2  B4D8               	btfsc	status,2,c
  2154  0018A4  EF56  F00C         	goto	u3431
  2155  0018A8  EF58  F00C         	goto	u3430
  2156  0018AC                     u3431:
  2157  0018AC  EF77  F00C         	goto	l4439
  2158  0018B0                     u3430:
  2159  0018B0                     
  2160                           ; BSR set to: 0
  2161                           ;usb_device.c: 1043:     {;usb_device.c: 1045:         pBDTEntryIn[ep] = (BDT_ENTRY*)(((
      +                          uint16_t)pBDTEntryIn[ep]) ^ 0x0004);
  2162  0018B0  51A7               	movf	USBTransferOnePacket@ep& (0+255),w,b
  2163  0018B2  0D02               	mullw	2
  2164  0018B4  0E0F               	movlw	low _pBDTEntryIn
  2165  0018B6  24F3               	addwf	243,w,c
  2166  0018B8  6ED9               	movwf	fsr2l,c
  2167  0018BA  0E00               	movlw	high _pBDTEntryIn
  2168  0018BC  20F4               	addwfc	prodh,w,c
  2169  0018BE  6EDA               	movwf	fsr2h,c
  2170  0018C0  CFDE F0A3          	movff	postinc2,??_USBTransferOnePacket
  2171  0018C4  CFDD F0A4          	movff	postdec2,??_USBTransferOnePacket+1
  2172  0018C8  0E04               	movlw	4
  2173  0018CA  19A3               	xorwf	??_USBTransferOnePacket& (0+255),w,b
  2174  0018CC  6FA5               	movwf	(??_USBTransferOnePacket+2)& (0+255),b
  2175  0018CE  51A4               	movf	(??_USBTransferOnePacket+1)& (0+255),w,b
  2176  0018D0  6FA6               	movwf	(??_USBTransferOnePacket+3)& (0+255),b
  2177  0018D2  51A7               	movf	USBTransferOnePacket@ep& (0+255),w,b
  2178  0018D4  0D02               	mullw	2
  2179  0018D6  0E0F               	movlw	low _pBDTEntryIn
  2180  0018D8  24F3               	addwf	243,w,c
  2181  0018DA  6ED9               	movwf	fsr2l,c
  2182  0018DC  0E00               	movlw	high _pBDTEntryIn
  2183  0018DE  20F4               	addwfc	prodh,w,c
  2184  0018E0  6EDA               	movwf	fsr2h,c
  2185  0018E2  C0A5  FFDE         	movff	??_USBTransferOnePacket+2,postinc2
  2186  0018E6  C0A6  FFDD         	movff	??_USBTransferOnePacket+3,postdec2
  2187                           
  2188                           ;usb_device.c: 1046:     }
  2189  0018EA  EF94  F00C         	goto	l4441
  2190  0018EE                     l4439:
  2191                           
  2192                           ; BSR set to: 0
  2193                           ;usb_device.c: 1048:     {;usb_device.c: 1050:         pBDTEntryOut[ep] = (BDT_ENTRY*)((
      +                          (uint16_t)pBDTEntryOut[ep]) ^ 0x0004);
  2194  0018EE  51A7               	movf	USBTransferOnePacket@ep& (0+255),w,b
  2195  0018F0  0D02               	mullw	2
  2196  0018F2  0E6A               	movlw	low _pBDTEntryOut
  2197  0018F4  24F3               	addwf	243,w,c
  2198  0018F6  6ED9               	movwf	fsr2l,c
  2199  0018F8  0E00               	movlw	high _pBDTEntryOut
  2200  0018FA  20F4               	addwfc	prodh,w,c
  2201  0018FC  6EDA               	movwf	fsr2h,c
  2202  0018FE  CFDE F0A3          	movff	postinc2,??_USBTransferOnePacket
  2203  001902  CFDD F0A4          	movff	postdec2,??_USBTransferOnePacket+1
  2204  001906  0E04               	movlw	4
  2205  001908  19A3               	xorwf	??_USBTransferOnePacket& (0+255),w,b
  2206  00190A  6FA5               	movwf	(??_USBTransferOnePacket+2)& (0+255),b
  2207  00190C  51A4               	movf	(??_USBTransferOnePacket+1)& (0+255),w,b
  2208  00190E  6FA6               	movwf	(??_USBTransferOnePacket+3)& (0+255),b
  2209  001910  51A7               	movf	USBTransferOnePacket@ep& (0+255),w,b
  2210  001912  0D02               	mullw	2
  2211  001914  0E6A               	movlw	low _pBDTEntryOut
  2212  001916  24F3               	addwf	243,w,c
  2213  001918  6ED9               	movwf	fsr2l,c
  2214  00191A  0E00               	movlw	high _pBDTEntryOut
  2215  00191C  20F4               	addwfc	prodh,w,c
  2216  00191E  6EDA               	movwf	fsr2h,c
  2217  001920  C0A5  FFDE         	movff	??_USBTransferOnePacket+2,postinc2
  2218  001924  C0A6  FFDD         	movff	??_USBTransferOnePacket+3,postdec2
  2219  001928                     l4441:
  2220                           
  2221                           ; BSR set to: 0
  2222                           ;usb_device.c: 1052:     return (void*)handle;
  2223  001928  C0A8  F09F         	movff	USBTransferOnePacket@handle,?_USBTransferOnePacket
  2224  00192C  C0A9  F0A0         	movff	USBTransferOnePacket@handle+1,?_USBTransferOnePacket+1
  2225  001930                     l267:
  2226                           
  2227                           ; BSR set to: 0
  2228  001930  0012               	return		;funcret
  2229  001932                     __end_of_USBTransferOnePacket:
  2230                           	opt callstack 0
  2231                           
  2232 ;; *************** function _mainISR *****************
  2233 ;; Defined at:
  2234 ;;		line 10 in file "main.c"
  2235 ;; Parameters:    Size  Location     Type
  2236 ;;		None
  2237 ;; Auto vars:     Size  Location     Type
  2238 ;;		None
  2239 ;; Return value:  Size  Location     Type
  2240 ;;                  1    wreg      void 
  2241 ;; Registers used:
  2242 ;;		wreg, fsr1l, fsr1h, fsr2l, fsr2h, status,2, status,0, tblptrl, tblptrh, tblptru, prodl, prodh, cstack
  2243 ;; Tracked objects:
  2244 ;;		On entry : 0/0
  2245 ;;		On exit  : 0/0
  2246 ;;		Unchanged: 0/0
  2247 ;; Data sizes:     COMRAM   BANK0   BANK1   BANK2   BANK3  BANK4h  BANK4l   BANK5   BANK6   BANK7
  2248 ;;      Params:         0       0       0       0       0       0       0       0       0       0
  2249 ;;      Locals:         0       0       0       0       0       0       0       0       0       0
  2250 ;;      Temps:         10       0       0       0       0       0       0       0       0       0
  2251 ;;      Totals:        10       0       0       0       0       0       0       0       0       0
  2252 ;;Total ram usage:       10 bytes
  2253 ;; Hardware stack levels used:    1
  2254 ;; Hardware stack levels required when called:   10
  2255 ;; This function calls:
  2256 ;;		_processUSBTasks
  2257 ;; This function is called by:
  2258 ;;		Interrupt level 2
  2259 ;; This function uses a non-reentrant model
  2260 ;;
  2261                           
  2262                           	psect	intcode
  2263  000008                     __pintcode:
  2264                           	opt callstack 0
  2265  000008                     _mainISR:
  2266                           	opt callstack 17
  2267                           
  2268                           ; BSR set to: 0
  2269                           ;incstack = 0
  2270  000008  8254               	bsf	int$flags,1,c	;set compiler interrupt flag (level 2)
  2271  00000A  EDDE  F013         	call	int_func,f	;refresh shadow registers
  2272                           
  2273                           	psect	intcode_body
  2274  0027BC                     __pintcode_body:
  2275                           	opt callstack 17
  2276  0027BC                     int_func:
  2277                           	opt callstack 17
  2278  0027BC  0006               	pop		; remove dummy address from shadow register refresh
  2279  0027BE  CFE1 F04A          	movff	fsr1l,??_mainISR
  2280  0027C2  CFE2 F04B          	movff	fsr1h,??_mainISR+1
  2281  0027C6  CFD9 F04C          	movff	fsr2l,??_mainISR+2
  2282  0027CA  CFDA F04D          	movff	fsr2h,??_mainISR+3
  2283  0027CE  CFF3 F04E          	movff	prodl,??_mainISR+4
  2284  0027D2  CFF4 F04F          	movff	prodh,??_mainISR+5
  2285  0027D6  CFF6 F050          	movff	tblptrl,??_mainISR+6
  2286  0027DA  CFF7 F051          	movff	tblptrh,??_mainISR+7
  2287  0027DE  CFF8 F052          	movff	tblptru,??_mainISR+8
  2288  0027E2  CFF5 F053          	movff	tablat,??_mainISR+9
  2289  0027E6                     
  2290                           ;main.c: 12:     processUSBTasks();
  2291  0027E6  ECD0  F014         	call	_processUSBTasks	;wreg free
  2292  0027EA  C053  FFF5         	movff	??_mainISR+9,tablat
  2293  0027EE  C052  FFF8         	movff	??_mainISR+8,tblptru
  2294  0027F2  C051  FFF7         	movff	??_mainISR+7,tblptrh
  2295  0027F6  C050  FFF6         	movff	??_mainISR+6,tblptrl
  2296  0027FA  C04F  FFF4         	movff	??_mainISR+5,prodh
  2297  0027FE  C04E  FFF3         	movff	??_mainISR+4,prodl
  2298  002802  C04D  FFDA         	movff	??_mainISR+3,fsr2h
  2299  002806  C04C  FFD9         	movff	??_mainISR+2,fsr2l
  2300  00280A  C04B  FFE2         	movff	??_mainISR+1,fsr1h
  2301  00280E  C04A  FFE1         	movff	??_mainISR,fsr1l
  2302  002812  9254               	bcf	int$flags,1,c	;clear compiler interrupt flag (level 2)
  2303  002814  0011               	retfie		f
  2304  002816                     __end_of_mainISR:
  2305                           	opt callstack 0
  2306                           
  2307 ;; *************** function _processUSBTasks *****************
  2308 ;; Defined at:
  2309 ;;		line 20 in file "usb_cdc_lib.c"
  2310 ;; Parameters:    Size  Location     Type
  2311 ;;		None
  2312 ;; Auto vars:     Size  Location     Type
  2313 ;;		None
  2314 ;; Return value:  Size  Location     Type
  2315 ;;                  1    wreg      void 
  2316 ;; Registers used:
  2317 ;;		wreg, fsr1l, fsr1h, fsr2l, fsr2h, status,2, status,0, tblptrl, tblptrh, tblptru, prodl, prodh, cstack
  2318 ;; Tracked objects:
  2319 ;;		On entry : 0/0
  2320 ;;		On exit  : 0/0
  2321 ;;		Unchanged: 0/0
  2322 ;; Data sizes:     COMRAM   BANK0   BANK1   BANK2   BANK3  BANK4h  BANK4l   BANK5   BANK6   BANK7
  2323 ;;      Params:         0       0       0       0       0       0       0       0       0       0
  2324 ;;      Locals:         0       0       0       0       0       0       0       0       0       0
  2325 ;;      Temps:          0       0       0       0       0       0       0       0       0       0
  2326 ;;      Totals:         0       0       0       0       0       0       0       0       0       0
  2327 ;;Total ram usage:        0 bytes
  2328 ;; Hardware stack levels used:    1
  2329 ;; Hardware stack levels required when called:    9
  2330 ;; This function calls:
  2331 ;;		_USBDeviceTasks
  2332 ;; This function is called by:
  2333 ;;		_mainISR
  2334 ;; This function uses a non-reentrant model
  2335 ;;
  2336                           
  2337                           	psect	text10
  2338  0029A0                     __ptext10:
  2339                           	opt callstack 0
  2340  0029A0                     _processUSBTasks:
  2341                           	opt callstack 17
  2342  0029A0                     
  2343                           ;usb_cdc_lib.c: 22:     if(INTCONbits.PEIE == 1)
  2344  0029A0  ACF2               	btfss	242,6,c	;volatile
  2345  0029A2  EFD5  F014         	goto	i2u297_41
  2346  0029A6  EFD7  F014         	goto	i2u297_40
  2347  0029AA                     i2u297_41:
  2348  0029AA  EFE7  F014         	goto	i2l69
  2349  0029AE                     i2u297_40:
  2350  0029AE                     
  2351                           ;usb_cdc_lib.c: 23:     {;usb_cdc_lib.c: 24:         if(PIE2bits.USBIE == 1 && PIR2bits.
      +                          USBIF == 1)
  2352  0029AE  AAA0               	btfss	160,5,c	;volatile
  2353  0029B0  EFDC  F014         	goto	i2u298_41
  2354  0029B4  EFDE  F014         	goto	i2u298_40
  2355  0029B8                     i2u298_41:
  2356  0029B8  EFE7  F014         	goto	i2l69
  2357  0029BC                     i2u298_40:
  2358  0029BC  AAA1               	btfss	161,5,c	;volatile
  2359  0029BE  EFE3  F014         	goto	i2u299_41
  2360  0029C2  EFE5  F014         	goto	i2u299_40
  2361  0029C6                     i2u299_41:
  2362  0029C6  EFE7  F014         	goto	i2l69
  2363  0029CA                     i2u299_40:
  2364  0029CA                     
  2365                           ;usb_cdc_lib.c: 25:         {;usb_cdc_lib.c: 26:             USBDeviceTasks();
  2366  0029CA  EC01  F006         	call	_USBDeviceTasks	;wreg free
  2367  0029CE                     i2l69:
  2368  0029CE  0012               	return		;funcret
  2369  0029D0                     __end_of_processUSBTasks:
  2370                           	opt callstack 0
  2371                           
  2372 ;; *************** function _USBDeviceTasks *****************
  2373 ;; Defined at:
  2374 ;;		line 481 in file "usb_device.c"
  2375 ;; Parameters:    Size  Location     Type
  2376 ;;		None
  2377 ;; Auto vars:     Size  Location     Type
  2378 ;;  i               1   30[COMRAM] unsigned char 
  2379 ;; Return value:  Size  Location     Type
  2380 ;;                  1    wreg      void 
  2381 ;; Registers used:
  2382 ;;		wreg, fsr1l, fsr1h, fsr2l, fsr2h, status,2, status,0, tblptrl, tblptrh, tblptru, prodl, prodh, cstack
  2383 ;; Tracked objects:
  2384 ;;		On entry : 0/0
  2385 ;;		On exit  : 0/0
  2386 ;;		Unchanged: 0/0
  2387 ;; Data sizes:     COMRAM   BANK0   BANK1   BANK2   BANK3  BANK4h  BANK4l   BANK5   BANK6   BANK7
  2388 ;;      Params:         0       0       0       0       0       0       0       0       0       0
  2389 ;;      Locals:         1       0       0       0       0       0       0       0       0       0
  2390 ;;      Temps:          0       0       0       0       0       0       0       0       0       0
  2391 ;;      Totals:         1       0       0       0       0       0       0       0       0       0
  2392 ;;Total ram usage:        1 bytes
  2393 ;; Hardware stack levels used:    1
  2394 ;; Hardware stack levels required when called:    8
  2395 ;; This function calls:
  2396 ;;		_USBCtrlEPAllowStatusStage
  2397 ;;		_USBCtrlEPService
  2398 ;;		_USBIncrement1msInternalTimers
  2399 ;;		_USBStallHandler
  2400 ;;		_USBSuspend
  2401 ;;		_USBWakeFromSuspend
  2402 ;;		_USER_USB_CALLBACK_EVENT_HANDLER
  2403 ;;		i2_USBDeviceInit
  2404 ;; This function is called by:
  2405 ;;		_processUSBTasks
  2406 ;; This function uses a non-reentrant model
  2407 ;;
  2408                           
  2409                           	psect	text11
  2410  000C02                     __ptext11:
  2411                           	opt callstack 0
  2412  000C02                     _USBDeviceTasks:
  2413                           	opt callstack 17
  2414  000C02                     
  2415                           ;usb_device.c: 483:     uint8_t i;;usb_device.c: 594:     if(USBDeviceState == ATTACHED_
      +                          STATE)
  2416  000C02  0428               	decf	_USBDeviceState^0,w,c	;volatile
  2417  000C04  A4D8               	btfss	status,2,c
  2418  000C06  EF07  F006         	goto	i2u271_41
  2419  000C0A  EF09  F006         	goto	i2u271_40
  2420  000C0E                     i2u271_41:
  2421  000C0E  EF16  F006         	goto	i2l3781
  2422  000C12                     i2u271_40:
  2423  000C12                     
  2424                           ;usb_device.c: 595:     {;usb_device.c: 605:         if(!UCONbits.SE0)
  2425  000C12  BA6D               	btfsc	109,5,c	;volatile
  2426  000C14  EF0E  F006         	goto	i2u272_41
  2427  000C18  EF10  F006         	goto	i2u272_40
  2428  000C1C                     i2u272_41:
  2429  000C1C  EF16  F006         	goto	i2l3781
  2430  000C20                     i2u272_40:
  2431  000C20                     
  2432                           ;usb_device.c: 606:         {;usb_device.c: 612:                 {UIR = 0;};
  2433  000C20  0E00               	movlw	0
  2434  000C22  6E68               	movwf	104,c	;volatile
  2435  000C24                     
  2436                           ;usb_device.c: 618:             UIEbits.URSTIE = 1;
  2437  000C24  8069               	bsf	105,0,c	;volatile
  2438  000C26                     
  2439                           ;usb_device.c: 619:             UIEbits.IDLEIE = 1;
  2440  000C26  8869               	bsf	105,4,c	;volatile
  2441                           
  2442                           ;usb_device.c: 620:             USBDeviceState = POWERED_STATE;
  2443  000C28  0E02               	movlw	2
  2444  000C2A  6E28               	movwf	_USBDeviceState^0,c	;volatile
  2445  000C2C                     i2l3781:
  2446                           
  2447                           ;usb_device.c: 640:     if(UIRbits.ACTVIF && UIEbits.ACTVIE)
  2448  000C2C  A468               	btfss	104,2,c	;volatile
  2449  000C2E  EF1B  F006         	goto	i2u273_41
  2450  000C32  EF1D  F006         	goto	i2u273_40
  2451  000C36                     i2u273_41:
  2452  000C36  EF27  F006         	goto	i2l3789
  2453  000C3A                     i2u273_40:
  2454  000C3A  A469               	btfss	105,2,c	;volatile
  2455  000C3C  EF22  F006         	goto	i2u274_41
  2456  000C40  EF24  F006         	goto	i2u274_40
  2457  000C44                     i2u274_41:
  2458  000C44  EF27  F006         	goto	i2l3789
  2459  000C48                     i2u274_40:
  2460  000C48                     
  2461                           ;usb_device.c: 641:     {;usb_device.c: 642:         (UIR &= 0xFB);
  2462  000C48  9468               	bcf	104,2,c	;volatile
  2463  000C4A                     
  2464                           ;usb_device.c: 646:             USBWakeFromSuspend();
  2465  000C4A  EC7A  F014         	call	_USBWakeFromSuspend	;wreg free
  2466  000C4E                     i2l3789:
  2467                           
  2468                           ;usb_device.c: 653:     if(UCONbits.SUSPND==1)
  2469  000C4E  A26D               	btfss	109,1,c	;volatile
  2470  000C50  EF2C  F006         	goto	i2u275_41
  2471  000C54  EF2E  F006         	goto	i2u275_40
  2472  000C58                     i2u275_41:
  2473  000C58  EF31  F006         	goto	i2l237
  2474  000C5C                     i2u275_40:
  2475  000C5C                     
  2476                           ;usb_device.c: 654:     {;usb_device.c: 655:         {PIR2bits.USBIF = 0;};
  2477  000C5C  9AA1               	bcf	161,5,c	;volatile
  2478                           
  2479                           ;usb_device.c: 656:         return;
  2480  000C5E  EF14  F007         	goto	i2l238
  2481  000C62                     i2l237:
  2482                           
  2483                           ;usb_device.c: 669:     if(UIRbits.URSTIF && UIEbits.URSTIE)
  2484  000C62  A068               	btfss	104,0,c	;volatile
  2485  000C64  EF36  F006         	goto	i2u276_41
  2486  000C68  EF38  F006         	goto	i2u276_40
  2487  000C6C                     i2u276_41:
  2488  000C6C  EF45  F006         	goto	i2l3803
  2489  000C70                     i2u276_40:
  2490  000C70  A069               	btfss	105,0,c	;volatile
  2491  000C72  EF3D  F006         	goto	i2u277_41
  2492  000C76  EF3F  F006         	goto	i2u277_40
  2493  000C7A                     i2u277_41:
  2494  000C7A  EF45  F006         	goto	i2l3803
  2495  000C7E                     i2u277_40:
  2496  000C7E                     
  2497                           ;usb_device.c: 670:     {;usb_device.c: 671:         USBDeviceInit();
  2498  000C7E  ECB1  F00A         	call	i2_USBDeviceInit	;wreg free
  2499  000C82                     
  2500                           ;usb_device.c: 675:         {PIE2bits.USBIE = 1;};
  2501  000C82  8AA0               	bsf	160,5,c	;volatile
  2502  000C84                     
  2503                           ;usb_device.c: 677:         USBDeviceState = DEFAULT_STATE;
  2504  000C84  0E04               	movlw	4
  2505  000C86  6E28               	movwf	_USBDeviceState^0,c	;volatile
  2506  000C88                     
  2507                           ;usb_device.c: 687:         (UIR &= 0xFE);
  2508  000C88  9068               	bcf	104,0,c	;volatile
  2509  000C8A                     i2l3803:
  2510                           
  2511                           ;usb_device.c: 693:     if(UIRbits.IDLEIF && UIEbits.IDLEIE)
  2512  000C8A  A868               	btfss	104,4,c	;volatile
  2513  000C8C  EF4A  F006         	goto	i2u278_41
  2514  000C90  EF4C  F006         	goto	i2u278_40
  2515  000C94                     i2u278_41:
  2516  000C94  EF55  F006         	goto	i2l3809
  2517  000C98                     i2u278_40:
  2518  000C98  A869               	btfss	105,4,c	;volatile
  2519  000C9A  EF51  F006         	goto	i2u279_41
  2520  000C9E  EF53  F006         	goto	i2u279_40
  2521  000CA2                     i2u279_41:
  2522  000CA2  EF55  F006         	goto	i2l3809
  2523  000CA6                     i2u279_40:
  2524  000CA6                     
  2525                           ;usb_device.c: 694:     {;usb_device.c: 700:             USBSuspend();
  2526  000CA6  ECE8  F014         	call	_USBSuspend	;wreg free
  2527  000CAA                     i2l3809:
  2528                           
  2529                           ;usb_device.c: 714:     if(UIRbits.SOFIF)
  2530  000CAA  AC68               	btfss	104,6,c	;volatile
  2531  000CAC  EF5A  F006         	goto	i2u280_41
  2532  000CB0  EF5C  F006         	goto	i2u280_40
  2533  000CB4                     i2u280_41:
  2534  000CB4  EF87  F006         	goto	i2l3827
  2535  000CB8                     i2u280_40:
  2536  000CB8                     
  2537                           ;usb_device.c: 715:     {;usb_device.c: 717:         if(UIEbits.SOFIE)
  2538  000CB8  AC69               	btfss	105,6,c	;volatile
  2539  000CBA  EF61  F006         	goto	i2u281_41
  2540  000CBE  EF63  F006         	goto	i2u281_40
  2541  000CC2                     i2u281_41:
  2542  000CC2  EF71  F006         	goto	i2l3815
  2543  000CC6                     i2u281_40:
  2544  000CC6                     
  2545                           ;usb_device.c: 718:         {;usb_device.c: 719:             USER_USB_CALLBACK_EVENT_HAN
      +                          DLER((USB_EVENT)EVENT_SOF,0,1);
  2546  000CC6  0E00               	movlw	0
  2547  000CC8  6E38               	movwf	(USER_USB_CALLBACK_EVENT_HANDLER@event+1)^0,c
  2548  000CCA  0E73               	movlw	115
  2549  000CCC  6E37               	movwf	USER_USB_CALLBACK_EVENT_HANDLER@event^0,c
  2550  000CCE  0E00               	movlw	0
  2551  000CD0  6E39               	movwf	USER_USB_CALLBACK_EVENT_HANDLER@pdata^0,c
  2552  000CD2  0E00               	movlw	0
  2553  000CD4  6E3A               	movwf	(USER_USB_CALLBACK_EVENT_HANDLER@pdata+1)^0,c
  2554  000CD6  0E00               	movlw	0
  2555  000CD8  6E3C               	movwf	(USER_USB_CALLBACK_EVENT_HANDLER@size+1)^0,c
  2556  000CDA  0E01               	movlw	1
  2557  000CDC  6E3B               	movwf	USER_USB_CALLBACK_EVENT_HANDLER@size^0,c
  2558  000CDE  ECFE  F012         	call	_USER_USB_CALLBACK_EVENT_HANDLER	;wreg free
  2559  000CE2                     i2l3815:
  2560                           
  2561                           ;usb_device.c: 721:         (UIR &= 0xBF);
  2562  000CE2  9C68               	bcf	104,6,c	;volatile
  2563  000CE4                     
  2564                           ;usb_device.c: 724:             USBIncrement1msInternalTimers();
  2565  000CE4  ECB6  F014         	call	_USBIncrement1msInternalTimers	;wreg free
  2566  000CE8                     
  2567                           ;usb_device.c: 741:             if(USBStatusStageTimeoutCounter != 0u)
  2568  000CE8  5021               	movf	_USBStatusStageTimeoutCounter^0,w,c	;volatile
  2569  000CEA  B4D8               	btfsc	status,2,c
  2570  000CEC  EF7A  F006         	goto	i2u282_41
  2571  000CF0  EF7C  F006         	goto	i2u282_40
  2572  000CF4                     i2u282_41:
  2573  000CF4  EF7D  F006         	goto	i2l3823
  2574  000CF8                     i2u282_40:
  2575  000CF8                     
  2576                           ;usb_device.c: 742:             {;usb_device.c: 743:                 USBStatusStageTimeo
      +                          utCounter--;
  2577  000CF8  0621               	decf	_USBStatusStageTimeoutCounter^0,f,c	;volatile
  2578  000CFA                     i2l3823:
  2579                           
  2580                           ;usb_device.c: 750:             if(USBStatusStageTimeoutCounter == 0)
  2581  000CFA  5021               	movf	_USBStatusStageTimeoutCounter^0,w,c	;volatile
  2582  000CFC  A4D8               	btfss	status,2,c
  2583  000CFE  EF83  F006         	goto	i2u283_41
  2584  000D02  EF85  F006         	goto	i2u283_40
  2585  000D06                     i2u283_41:
  2586  000D06  EF87  F006         	goto	i2l3827
  2587  000D0A                     i2u283_40:
  2588  000D0A                     
  2589                           ;usb_device.c: 751:             {;usb_device.c: 752:                 USBCtrlEPAllowStatu
      +                          sStage();
  2590  000D0A  EC73  F010         	call	_USBCtrlEPAllowStatusStage	;wreg free
  2591  000D0E                     i2l3827:
  2592                           
  2593                           ;usb_device.c: 757:     if(UIRbits.STALLIF && UIEbits.STALLIE)
  2594  000D0E  AA68               	btfss	104,5,c	;volatile
  2595  000D10  EF8C  F006         	goto	i2u284_41
  2596  000D14  EF8E  F006         	goto	i2u284_40
  2597  000D18                     i2u284_41:
  2598  000D18  EF97  F006         	goto	i2l3833
  2599  000D1C                     i2u284_40:
  2600  000D1C  AA69               	btfss	105,5,c	;volatile
  2601  000D1E  EF93  F006         	goto	i2u285_41
  2602  000D22  EF95  F006         	goto	i2u285_40
  2603  000D26                     i2u285_41:
  2604  000D26  EF97  F006         	goto	i2l3833
  2605  000D2A                     i2u285_40:
  2606  000D2A                     
  2607                           ;usb_device.c: 758:     {;usb_device.c: 759:         USBStallHandler();
  2608  000D2A  ECAE  F013         	call	_USBStallHandler	;wreg free
  2609  000D2E                     i2l3833:
  2610                           
  2611                           ;usb_device.c: 762:     if(UIRbits.UERRIF && UIEbits.UERRIE)
  2612  000D2E  A268               	btfss	104,1,c	;volatile
  2613  000D30  EF9C  F006         	goto	i2u286_41
  2614  000D34  EF9E  F006         	goto	i2u286_40
  2615  000D38                     i2u286_41:
  2616  000D38  EFB4  F006         	goto	i2l3841
  2617  000D3C                     i2u286_40:
  2618  000D3C  A269               	btfss	105,1,c	;volatile
  2619  000D3E  EFA3  F006         	goto	i2u287_41
  2620  000D42  EFA5  F006         	goto	i2u287_40
  2621  000D46                     i2u287_41:
  2622  000D46  EFB4  F006         	goto	i2l3841
  2623  000D4A                     i2u287_40:
  2624  000D4A                     
  2625                           ;usb_device.c: 763:     {;usb_device.c: 764:         USER_USB_CALLBACK_EVENT_HANDLER((US
      +                          B_EVENT)EVENT_BUS_ERROR,0,1);
  2626  000D4A  0E7F               	movlw	127
  2627  000D4C  6E38               	movwf	(USER_USB_CALLBACK_EVENT_HANDLER@event+1)^0,c
  2628  000D4E  6837               	setf	USER_USB_CALLBACK_EVENT_HANDLER@event^0,c
  2629  000D50  0E00               	movlw	0
  2630  000D52  6E39               	movwf	USER_USB_CALLBACK_EVENT_HANDLER@pdata^0,c
  2631  000D54  0E00               	movlw	0
  2632  000D56  6E3A               	movwf	(USER_USB_CALLBACK_EVENT_HANDLER@pdata+1)^0,c
  2633  000D58  0E00               	movlw	0
  2634  000D5A  6E3C               	movwf	(USER_USB_CALLBACK_EVENT_HANDLER@size+1)^0,c
  2635  000D5C  0E01               	movlw	1
  2636  000D5E  6E3B               	movwf	USER_USB_CALLBACK_EVENT_HANDLER@size^0,c
  2637  000D60  ECFE  F012         	call	_USER_USB_CALLBACK_EVENT_HANDLER	;wreg free
  2638  000D64                     
  2639                           ;usb_device.c: 765:         {UEIR = 0;};
  2640  000D64  0E00               	movlw	0
  2641  000D66  6E6A               	movwf	106,c	;volatile
  2642  000D68                     i2l3841:
  2643                           
  2644                           ;usb_device.c: 780:     if(USBDeviceState < DEFAULT_STATE)
  2645  000D68  0E04               	movlw	4
  2646  000D6A  6028               	cpfslt	_USBDeviceState^0,c	;volatile
  2647  000D6C  EFBA  F006         	goto	i2u288_41
  2648  000D70  EFBC  F006         	goto	i2u288_40
  2649  000D74                     i2u288_41:
  2650  000D74  EFBF  F006         	goto	i2l247
  2651  000D78                     i2u288_40:
  2652  000D78                     
  2653                           ;usb_device.c: 781:     {;usb_device.c: 782:         {PIR2bits.USBIF = 0;};
  2654  000D78  9AA1               	bcf	161,5,c	;volatile
  2655                           
  2656                           ;usb_device.c: 783:         return;
  2657  000D7A  EF14  F007         	goto	i2l238
  2658  000D7E                     i2l247:
  2659                           
  2660                           ;usb_device.c: 789:     if(UIEbits.TRNIE)
  2661  000D7E  A669               	btfss	105,3,c	;volatile
  2662  000D80  EFC4  F006         	goto	i2u289_41
  2663  000D84  EFC6  F006         	goto	i2u289_40
  2664  000D88                     i2u289_41:
  2665  000D88  EF13  F007         	goto	i2l248
  2666  000D8C                     i2u289_40:
  2667  000D8C                     
  2668                           ;usb_device.c: 790:     {;usb_device.c: 791:         for(i = 0; i < 4u; i++)
  2669  000D8C  0E00               	movlw	0
  2670  000D8E  6E49               	movwf	USBDeviceTasks@i^0,c
  2671  000D90                     i2l249:
  2672                           
  2673                           ;usb_device.c: 792:         {;usb_device.c: 793:             if(UIRbits.TRNIF)
  2674  000D90  A668               	btfss	104,3,c	;volatile
  2675  000D92  EFCD  F006         	goto	i2u290_41
  2676  000D96  EFCF  F006         	goto	i2u290_40
  2677  000D9A                     i2u290_41:
  2678  000D9A  EF13  F007         	goto	i2l248
  2679  000D9E                     i2u290_40:
  2680  000D9E                     
  2681                           ;usb_device.c: 794:             {;usb_device.c: 796:                 USTATcopy.Val = UST
      +                          AT;
  2682  000D9E  CF6C F029          	movff	3948,_USTATcopy	;volatile
  2683  000DA2                     
  2684                           ;usb_device.c: 797:                 endpoint_number = USTATcopy.endpoint_number;
  2685  000DA2  3029               	rrcf	_USTATcopy^0,w,c	;volatile
  2686  000DA4  32E8               	rrcf	wreg,f,c
  2687  000DA6  32E8               	rrcf	wreg,f,c
  2688  000DA8  0B0F               	andlw	15
  2689  000DAA  6E23               	movwf	_endpoint_number^0,c	;volatile
  2690  000DAC                     
  2691                           ;usb_device.c: 799:                 (UIR &= 0xF7);
  2692  000DAC  9668               	bcf	104,3,c	;volatile
  2693  000DAE                     
  2694                           ;usb_device.c: 804:                 if(USTATcopy.direction == 0)
  2695  000DAE  B429               	btfsc	_USTATcopy^0,2,c	;volatile
  2696  000DB0  EFDC  F006         	goto	i2u291_41
  2697  000DB4  EFDE  F006         	goto	i2u291_40
  2698  000DB8                     i2u291_41:
  2699  000DB8  EFE8  F006         	goto	i2l3861
  2700  000DBC                     i2u291_40:
  2701  000DBC                     
  2702                           ;usb_device.c: 805:                 {;usb_device.c: 806:                     ep_data_out
      +                          [endpoint_number].bits.ping_pong_state ^= 1;
  2703  000DBC  0E7E               	movlw	low _ep_data_out
  2704  000DBE  2423               	addwf	_endpoint_number^0,w,c	;volatile
  2705  000DC0  6ED9               	movwf	fsr2l,c
  2706  000DC2  6ADA               	clrf	fsr2h,c
  2707  000DC4  0E00               	movlw	high _ep_data_out
  2708  000DC6  22DA               	addwfc	fsr2h,f,c
  2709  000DC8  0100               	movlb	0	; () banked
  2710  000DCA  70DF               	btg	indf2,0,c
  2711                           
  2712                           ;usb_device.c: 807:                 }
  2713  000DCC  EFF0  F006         	goto	i2l3863
  2714  000DD0                     i2l3861:
  2715                           
  2716                           ;usb_device.c: 809:                 {;usb_device.c: 810:                     ep_data_in[
      +                          endpoint_number].bits.ping_pong_state ^= 1;
  2717  000DD0  0E81               	movlw	low _ep_data_in
  2718  000DD2  2423               	addwf	_endpoint_number^0,w,c	;volatile
  2719  000DD4  6ED9               	movwf	fsr2l,c
  2720  000DD6  6ADA               	clrf	fsr2h,c
  2721  000DD8  0E00               	movlw	high _ep_data_in
  2722  000DDA  22DA               	addwfc	fsr2h,f,c
  2723  000DDC  0100               	movlb	0	; () banked
  2724  000DDE  70DF               	btg	indf2,0,c
  2725  000DE0                     i2l3863:
  2726                           
  2727                           ; BSR set to: 0
  2728                           ;usb_device.c: 816:                 if(endpoint_number == 0)
  2729  000DE0  5023               	movf	_endpoint_number^0,w,c	;volatile
  2730  000DE2  A4D8               	btfss	status,2,c
  2731  000DE4  EFF6  F006         	goto	i2u292_41
  2732  000DE8  EFF8  F006         	goto	i2u292_40
  2733  000DEC                     i2u292_41:
  2734  000DEC  EFFC  F006         	goto	i2l3867
  2735  000DF0                     i2u292_40:
  2736  000DF0                     
  2737                           ; BSR set to: 0
  2738                           ;usb_device.c: 817:                 {;usb_device.c: 818:                     USBCtrlEPSe
      +                          rvice();
  2739  000DF0  EC5E  F011         	call	_USBCtrlEPService	;wreg free
  2740                           
  2741                           ;usb_device.c: 819:                 }
  2742  000DF4  EF0A  F007         	goto	i2l3869
  2743  000DF8                     i2l3867:
  2744                           
  2745                           ; BSR set to: 0
  2746                           ;usb_device.c: 821:                 {;usb_device.c: 822:                     USER_USB_CA
      +                          LLBACK_EVENT_HANDLER((USB_EVENT)EVENT_TRANSFER,(uint8_t*)&USTATcopy.Val,0);
  2747  000DF8  0E00               	movlw	0
  2748  000DFA  6E38               	movwf	(USER_USB_CALLBACK_EVENT_HANDLER@event+1)^0,c
  2749  000DFC  0E72               	movlw	114
  2750  000DFE  6E37               	movwf	USER_USB_CALLBACK_EVENT_HANDLER@event^0,c
  2751  000E00  0E29               	movlw	low _USTATcopy
  2752  000E02  6E39               	movwf	USER_USB_CALLBACK_EVENT_HANDLER@pdata^0,c
  2753  000E04  0E00               	movlw	high _USTATcopy
  2754  000E06  6E3A               	movwf	(USER_USB_CALLBACK_EVENT_HANDLER@pdata+1)^0,c
  2755  000E08  0E00               	movlw	0
  2756  000E0A  6E3C               	movwf	(USER_USB_CALLBACK_EVENT_HANDLER@size+1)^0,c
  2757  000E0C  0E00               	movlw	0
  2758  000E0E  6E3B               	movwf	USER_USB_CALLBACK_EVENT_HANDLER@size^0,c
  2759  000E10  ECFE  F012         	call	_USER_USB_CALLBACK_EVENT_HANDLER	;wreg free
  2760  000E14                     i2l3869:
  2761                           
  2762                           ;usb_device.c: 829:         }
  2763  000E14  2A49               	incf	USBDeviceTasks@i^0,f,c
  2764  000E16  0E03               	movlw	3
  2765  000E18  6449               	cpfsgt	USBDeviceTasks@i^0,c
  2766  000E1A  EF11  F007         	goto	i2u293_41
  2767  000E1E  EF13  F007         	goto	i2u293_40
  2768  000E22                     i2u293_41:
  2769  000E22  EFC8  F006         	goto	i2l249
  2770  000E26                     i2u293_40:
  2771  000E26                     i2l248:
  2772                           
  2773                           ;usb_device.c: 832:     {PIR2bits.USBIF = 0;};
  2774  000E26  9AA1               	bcf	161,5,c	;volatile
  2775  000E28                     i2l238:
  2776  000E28  0012               	return		;funcret
  2777  000E2A                     __end_of_USBDeviceTasks:
  2778                           	opt callstack 0
  2779                           
  2780 ;; *************** function i2_USBDeviceInit *****************
  2781 ;; Defined at:
  2782 ;;		line 281 in file "usb_device.c"
  2783 ;; Parameters:    Size  Location     Type
  2784 ;;		None
  2785 ;; Auto vars:     Size  Location     Type
  2786 ;;  USBDeviceIni    1   12[COMRAM] unsigned char 
  2787 ;; Return value:  Size  Location     Type
  2788 ;;                  1    wreg      void 
  2789 ;; Registers used:
  2790 ;;		wreg, fsr2l, fsr2h, status,2, status,0, prodl, prodh, cstack
  2791 ;; Tracked objects:
  2792 ;;		On entry : 0/0
  2793 ;;		On exit  : 0/0
  2794 ;;		Unchanged: 0/0
  2795 ;; Data sizes:     COMRAM   BANK0   BANK1   BANK2   BANK3  BANK4h  BANK4l   BANK5   BANK6   BANK7
  2796 ;;      Params:         0       0       0       0       0       0       0       0       0       0
  2797 ;;      Locals:         1       0       0       0       0       0       0       0       0       0
  2798 ;;      Temps:          0       0       0       0       0       0       0       0       0       0
  2799 ;;      Totals:         1       0       0       0       0       0       0       0       0       0
  2800 ;;Total ram usage:        1 bytes
  2801 ;; Hardware stack levels used:    1
  2802 ;; Hardware stack levels required when called:    1
  2803 ;; This function calls:
  2804 ;;		i2_memset
  2805 ;; This function is called by:
  2806 ;;		_USBDeviceTasks
  2807 ;; This function uses a non-reentrant model
  2808 ;;
  2809                           
  2810                           	psect	text12
  2811  001562                     __ptext12:
  2812                           	opt callstack 0
  2813  001562                     i2_USBDeviceInit:
  2814                           	opt callstack 23
  2815  001562                     
  2816                           ;usb_device.c: 283:     uint8_t i;;usb_device.c: 285:     {PIE2bits.USBIE = 0;};
  2817  001562  9AA0               	bcf	160,5,c	;volatile
  2818  001564                     
  2819                           ;usb_device.c: 292:     {UEIR = 0;};
  2820  001564  0E00               	movlw	0
  2821  001566  6E6A               	movwf	106,c	;volatile
  2822                           
  2823                           ;usb_device.c: 295:     {UIR = 0;};
  2824  001568  0E00               	movlw	0
  2825  00156A  6E68               	movwf	104,c	;volatile
  2826                           
  2827                           ;usb_device.c: 298:     UEP0 = 0;
  2828  00156C  0E00               	movlw	0
  2829  00156E  6E70               	movwf	112,c	;volatile
  2830  001570                     
  2831                           ;usb_device.c: 300:     memset((void*)&UEP1,0x00,(2));;
  2832  001570  0E71               	movlw	113
  2833  001572  6E2B               	movwf	i2memset@dest^0,c
  2834  001574  0E0F               	movlw	15
  2835  001576  6E2C               	movwf	(i2memset@dest+1)^0,c
  2836  001578  0E00               	movlw	0
  2837  00157A  6E2E               	movwf	(i2memset@c+1)^0,c
  2838  00157C  0E00               	movlw	0
  2839  00157E  6E2D               	movwf	i2memset@c^0,c
  2840  001580  0E00               	movlw	0
  2841  001582  6E30               	movwf	(i2memset@n+1)^0,c
  2842  001584  0E02               	movlw	2
  2843  001586  6E2F               	movwf	i2memset@n^0,c
  2844  001588  EC9F  F008         	call	i2_memset	;wreg free
  2845  00158C                     
  2846                           ;usb_device.c: 302:     { UCFG = 0x10 | 0x00 | 0x04 | 0x02; UEIE = 0x9F; UIE = 0x39 | 0x
      +                          40 | 0x02; };
  2847  00158C  0E16               	movlw	22
  2848  00158E  6E6F               	movwf	111,c	;volatile
  2849  001590  0E9F               	movlw	159
  2850  001592  6E6B               	movwf	107,c	;volatile
  2851  001594  0E7B               	movlw	123
  2852  001596  6E69               	movwf	105,c	;volatile
  2853  001598                     
  2854                           ;usb_device.c: 311:     for(i = 0; i < (sizeof(BDT)/sizeof(BDT_ENTRY)); i++)
  2855  001598  0E00               	movlw	0
  2856  00159A  6E37               	movwf	i2USBDeviceInit@i^0,c
  2857  00159C                     i2l3627:
  2858                           
  2859                           ;usb_device.c: 312:     {;usb_device.c: 313:         BDT[i].Val = 0x00;
  2860  00159C  5037               	movf	i2USBDeviceInit@i^0,w,c
  2861  00159E  0D04               	mullw	4
  2862  0015A0  0E00               	movlw	0
  2863  0015A2  24F3               	addwf	243,w,c
  2864  0015A4  6ED9               	movwf	fsr2l,c
  2865  0015A6  0E04               	movlw	4
  2866  0015A8  20F4               	addwfc	prodh,w,c
  2867  0015AA  6EDA               	movwf	fsr2h,c
  2868  0015AC  6ADE               	clrf	postinc2,c
  2869  0015AE  6ADE               	clrf	postinc2,c
  2870  0015B0  6ADE               	clrf	postinc2,c
  2871  0015B2  6ADD               	clrf	postdec2,c
  2872  0015B4                     
  2873                           ;usb_device.c: 314:     }
  2874  0015B4  2A37               	incf	i2USBDeviceInit@i^0,f,c
  2875  0015B6  0E0B               	movlw	11
  2876  0015B8  6437               	cpfsgt	i2USBDeviceInit@i^0,c
  2877  0015BA  EFE1  F00A         	goto	i2u263_41
  2878  0015BE  EFE3  F00A         	goto	i2u263_40
  2879  0015C2                     i2u263_41:
  2880  0015C2  EFCE  F00A         	goto	i2l3627
  2881  0015C6                     i2u263_40:
  2882  0015C6                     
  2883                           ;usb_device.c: 317:     UCONbits.PPBRST = 1;
  2884  0015C6  8C6D               	bsf	109,6,c	;volatile
  2885  0015C8                     
  2886                           ;usb_device.c: 320:     UADDR = 0x00;
  2887  0015C8  0E00               	movlw	0
  2888  0015CA  6E6E               	movwf	110,c	;volatile
  2889  0015CC                     
  2890                           ;usb_device.c: 323:     UCONbits.PKTDIS = 0;
  2891  0015CC  986D               	bcf	109,4,c	;volatile
  2892  0015CE                     
  2893                           ;usb_device.c: 326:     UCONbits.PPBRST = 0;
  2894  0015CE  9C6D               	bcf	109,6,c	;volatile
  2895  0015D0                     i2l3639:
  2896                           
  2897                           ;usb_device.c: 330:     {;usb_device.c: 331:         (UIR &= 0xF7);
  2898  0015D0  9668               	bcf	104,3,c	;volatile
  2899  0015D2                     
  2900                           ;usb_device.c: 333:         inPipes[0].info.Val = 0;
  2901  0015D2  0E00               	movlw	0
  2902  0015D4  6E0C               	movwf	(_inPipes+3)^0,c	;volatile
  2903  0015D6                     
  2904                           ;usb_device.c: 334:         outPipes[0].info.Val = 0;
  2905  0015D6  0E00               	movlw	0
  2906  0015D8  6E04               	movwf	(_outPipes+3)^0,c	;volatile
  2907  0015DA                     
  2908                           ;usb_device.c: 335:         outPipes[0].wCount.Val = 0;
  2909  0015DA  0E00               	movlw	0
  2910  0015DC  6E06               	movwf	(_outPipes+5)^0,c	;volatile
  2911  0015DE  0E00               	movlw	0
  2912  0015E0  6E05               	movwf	(_outPipes+4)^0,c	;volatile
  2913  0015E2                     
  2914                           ;usb_device.c: 336:     }while(UIRbits.TRNIF == 1);
  2915  0015E2  B668               	btfsc	104,3,c	;volatile
  2916  0015E4  EFF6  F00A         	goto	i2u264_41
  2917  0015E8  EFF8  F00A         	goto	i2u264_40
  2918  0015EC                     i2u264_41:
  2919  0015EC  EFE8  F00A         	goto	i2l3639
  2920  0015F0                     i2u264_40:
  2921  0015F0                     
  2922                           ;usb_device.c: 340:     USBStatusStageEnabledFlag1 = 1;
  2923  0015F0  0E01               	movlw	1
  2924  0015F2  6E1F               	movwf	_USBStatusStageEnabledFlag1^0,c	;volatile
  2925                           
  2926                           ;usb_device.c: 341:     USBStatusStageEnabledFlag2 = 1;
  2927  0015F4  0E01               	movlw	1
  2928  0015F6  6E1E               	movwf	_USBStatusStageEnabledFlag2^0,c	;volatile
  2929                           
  2930                           ;usb_device.c: 343:     USBDeferINDataStagePackets = 0;
  2931  0015F8  0E00               	movlw	0
  2932  0015FA  0100               	movlb	0	; () banked
  2933  0015FC  6F8C               	movwf	_USBDeferINDataStagePackets& (0+255),b	;volatile
  2934                           
  2935                           ;usb_device.c: 344:     USBDeferOUTDataStagePackets = 0;
  2936  0015FE  0E00               	movlw	0
  2937  001600  6F8B               	movwf	_USBDeferOUTDataStagePackets& (0+255),b	;volatile
  2938                           
  2939                           ;usb_device.c: 345:     USBBusIsSuspended = 0;
  2940  001602  0E00               	movlw	0
  2941  001604  6E24               	movwf	_USBBusIsSuspended^0,c	;volatile
  2942                           
  2943                           ;usb_device.c: 349:     for(i = 0; i < (uint8_t)(2 +1u); i++)
  2944  001606  0E00               	movlw	0
  2945  001608  6E37               	movwf	i2USBDeviceInit@i^0,c
  2946  00160A                     i2l3655:
  2947                           
  2948                           ;usb_device.c: 350:     {;usb_device.c: 351:         pBDTEntryIn[i] = 0u;
  2949  00160A  5037               	movf	i2USBDeviceInit@i^0,w,c
  2950  00160C  0D02               	mullw	2
  2951  00160E  0E0F               	movlw	low _pBDTEntryIn
  2952  001610  24F3               	addwf	243,w,c
  2953  001612  6ED9               	movwf	fsr2l,c
  2954  001614  0E00               	movlw	high _pBDTEntryIn
  2955  001616  20F4               	addwfc	prodh,w,c
  2956  001618  6EDA               	movwf	fsr2h,c
  2957  00161A  0E00               	movlw	0
  2958  00161C  6EDE               	movwf	postinc2,c
  2959  00161E  0E00               	movlw	0
  2960  001620  6EDD               	movwf	postdec2,c
  2961                           
  2962                           ;usb_device.c: 352:         pBDTEntryOut[i] = 0u;
  2963  001622  5037               	movf	i2USBDeviceInit@i^0,w,c
  2964  001624  0D02               	mullw	2
  2965  001626  0E6A               	movlw	low _pBDTEntryOut
  2966  001628  24F3               	addwf	243,w,c
  2967  00162A  6ED9               	movwf	fsr2l,c
  2968  00162C  0E00               	movlw	high _pBDTEntryOut
  2969  00162E  20F4               	addwfc	prodh,w,c
  2970  001630  6EDA               	movwf	fsr2h,c
  2971  001632  0E00               	movlw	0
  2972  001634  6EDE               	movwf	postinc2,c
  2973  001636  0E00               	movlw	0
  2974  001638  6EDD               	movwf	postdec2,c
  2975  00163A                     
  2976                           ;usb_device.c: 353:         ep_data_in[i].Val = 0u;
  2977  00163A  0E81               	movlw	low _ep_data_in
  2978  00163C  2437               	addwf	i2USBDeviceInit@i^0,w,c
  2979  00163E  6ED9               	movwf	fsr2l,c
  2980  001640  6ADA               	clrf	fsr2h,c
  2981  001642  0E00               	movlw	high _ep_data_in
  2982  001644  22DA               	addwfc	fsr2h,f,c
  2983  001646  0E00               	movlw	0
  2984  001648  6EDF               	movwf	indf2,c
  2985  00164A                     
  2986                           ;usb_device.c: 354:         ep_data_out[i].Val = 0u;
  2987  00164A  0E7E               	movlw	low _ep_data_out
  2988  00164C  2437               	addwf	i2USBDeviceInit@i^0,w,c
  2989  00164E  6ED9               	movwf	fsr2l,c
  2990  001650  6ADA               	clrf	fsr2h,c
  2991  001652  0E00               	movlw	high _ep_data_out
  2992  001654  22DA               	addwfc	fsr2h,f,c
  2993  001656  0E00               	movlw	0
  2994  001658  6EDF               	movwf	indf2,c
  2995  00165A                     
  2996                           ;usb_device.c: 355:     }
  2997  00165A  2A37               	incf	i2USBDeviceInit@i^0,f,c
  2998  00165C  0E02               	movlw	2
  2999  00165E  6437               	cpfsgt	i2USBDeviceInit@i^0,c
  3000  001660  EF34  F00B         	goto	i2u265_41
  3001  001664  EF36  F00B         	goto	i2u265_40
  3002  001668                     i2u265_41:
  3003  001668  EF05  F00B         	goto	i2l3655
  3004  00166C                     i2u265_40:
  3005  00166C                     
  3006                           ;usb_device.c: 358:     pBDTEntryIn[0] = (volatile BDT_ENTRY*)&BDT[2];
  3007  00166C  0E08               	movlw	8
  3008  00166E  6E0F               	movwf	_pBDTEntryIn^0,c
  3009  001670  0E04               	movlw	4
  3010  001672  6E10               	movwf	(_pBDTEntryIn+1)^0,c
  3011  001674                     
  3012                           ;usb_device.c: 360:     UEP0 = 0x06|0x10;
  3013  001674  0E16               	movlw	22
  3014  001676  6E70               	movwf	112,c	;volatile
  3015  001678                     
  3016                           ;usb_device.c: 362:     BDT[0].ADR = ((uint16_t)(&SetupPkt));
  3017  001678  0E04               	movlw	4
  3018  00167A  0104               	movlb	4	; () banked
  3019  00167C  6F03               	movwf	3,b	;volatile
  3020  00167E  0E30               	movlw	48
  3021  001680  6F02               	movwf	2,b	;volatile
  3022  001682                     
  3023                           ; BSR set to: 4
  3024                           ;usb_device.c: 363:     BDT[0].CNT = 32;
  3025  001682  0E20               	movlw	32
  3026  001684  6F01               	movwf	1,b	;volatile
  3027  001686                     
  3028                           ; BSR set to: 4
  3029                           ;usb_device.c: 364:     BDT[0].STAT.Val = 0x00|0x04;
  3030  001686  0E04               	movlw	4
  3031  001688  6F00               	movwf	0,b	;volatile
  3032  00168A                     
  3033                           ; BSR set to: 4
  3034                           ;usb_device.c: 365:     BDT[0].STAT.Val |= 0x80;
  3035  00168A  8F00               	bsf	0,7,b	;volatile
  3036  00168C                     
  3037                           ; BSR set to: 4
  3038                           ;usb_device.c: 368:     USBActiveConfiguration = 0;
  3039  00168C  0E00               	movlw	0
  3040  00168E  6E2A               	movwf	_USBActiveConfiguration^0,c	;volatile
  3041  001690                     
  3042                           ; BSR set to: 4
  3043                           ;usb_device.c: 370:     USB1msTickCount = 0;
  3044  001690  0E00               	movlw	0
  3045  001692  0100               	movlb	0	; () banked
  3046  001694  6F74               	movwf	_USB1msTickCount& (0+255),b	;volatile
  3047  001696  0E00               	movlw	0
  3048  001698  6F75               	movwf	(_USB1msTickCount+1)& (0+255),b	;volatile
  3049  00169A  0E00               	movlw	0
  3050  00169C  6F76               	movwf	(_USB1msTickCount+2)& (0+255),b	;volatile
  3051  00169E  0E00               	movlw	0
  3052  0016A0  6F77               	movwf	(_USB1msTickCount+3)& (0+255),b	;volatile
  3053  0016A2                     
  3054                           ; BSR set to: 0
  3055                           ;usb_device.c: 371:     USBTicksSinceSuspendEnd = 0;
  3056  0016A2  0E00               	movlw	0
  3057  0016A4  6F8A               	movwf	_USBTicksSinceSuspendEnd& (0+255),b	;volatile
  3058  0016A6                     
  3059                           ; BSR set to: 0
  3060                           ;usb_device.c: 374:     USBDeviceState = DETACHED_STATE;
  3061  0016A6  0E00               	movlw	0
  3062  0016A8  6E28               	movwf	_USBDeviceState^0,c	;volatile
  3063  0016AA                     
  3064                           ; BSR set to: 0
  3065  0016AA  0012               	return		;funcret
  3066  0016AC                     __end_ofi2_USBDeviceInit:
  3067                           	opt callstack 0
  3068                           
  3069 ;; *************** function _USBWakeFromSuspend *****************
  3070 ;; Defined at:
  3071 ;;		line 2309 in file "usb_device.c"
  3072 ;; Parameters:    Size  Location     Type
  3073 ;;		None
  3074 ;; Auto vars:     Size  Location     Type
  3075 ;;		None
  3076 ;; Return value:  Size  Location     Type
  3077 ;;                  1    wreg      void 
  3078 ;; Registers used:
  3079 ;;		wreg, fsr2l, fsr2h, status,2, status,0, prodl, prodh, cstack
  3080 ;; Tracked objects:
  3081 ;;		On entry : 0/0
  3082 ;;		On exit  : 0/0
  3083 ;;		Unchanged: 0/0
  3084 ;; Data sizes:     COMRAM   BANK0   BANK1   BANK2   BANK3  BANK4h  BANK4l   BANK5   BANK6   BANK7
  3085 ;;      Params:         0       0       0       0       0       0       0       0       0       0
  3086 ;;      Locals:         0       0       0       0       0       0       0       0       0       0
  3087 ;;      Temps:          0       0       0       0       0       0       0       0       0       0
  3088 ;;      Totals:         0       0       0       0       0       0       0       0       0       0
  3089 ;;Total ram usage:        0 bytes
  3090 ;; Hardware stack levels used:    1
  3091 ;; Hardware stack levels required when called:    4
  3092 ;; This function calls:
  3093 ;;		_USER_USB_CALLBACK_EVENT_HANDLER
  3094 ;; This function is called by:
  3095 ;;		_USBDeviceTasks
  3096 ;; This function uses a non-reentrant model
  3097 ;;
  3098                           
  3099                           	psect	text13
  3100  0028F4                     __ptext13:
  3101                           	opt callstack 0
  3102  0028F4                     _USBWakeFromSuspend:
  3103                           	opt callstack 20
  3104  0028F4                     
  3105                           ;usb_device.c: 2311:     USBBusIsSuspended = 0;
  3106  0028F4  0E00               	movlw	0
  3107  0028F6  6E24               	movwf	_USBBusIsSuspended^0,c	;volatile
  3108  0028F8                     
  3109                           ;usb_device.c: 2317:     USER_USB_CALLBACK_EVENT_HANDLER((USB_EVENT)EVENT_RESUME,0,0);
  3110  0028F8  0E00               	movlw	0
  3111  0028FA  6E38               	movwf	(USER_USB_CALLBACK_EVENT_HANDLER@event+1)^0,c
  3112  0028FC  0E74               	movlw	116
  3113  0028FE  6E37               	movwf	USER_USB_CALLBACK_EVENT_HANDLER@event^0,c
  3114  002900  0E00               	movlw	0
  3115  002902  6E39               	movwf	USER_USB_CALLBACK_EVENT_HANDLER@pdata^0,c
  3116  002904  0E00               	movlw	0
  3117  002906  6E3A               	movwf	(USER_USB_CALLBACK_EVENT_HANDLER@pdata+1)^0,c
  3118  002908  0E00               	movlw	0
  3119  00290A  6E3C               	movwf	(USER_USB_CALLBACK_EVENT_HANDLER@size+1)^0,c
  3120  00290C  0E00               	movlw	0
  3121  00290E  6E3B               	movwf	USER_USB_CALLBACK_EVENT_HANDLER@size^0,c
  3122  002910  ECFE  F012         	call	_USER_USB_CALLBACK_EVENT_HANDLER	;wreg free
  3123  002914                     
  3124                           ;usb_device.c: 2324:         UCONbits.SUSPND = 0;
  3125  002914  926D               	bcf	109,1,c	;volatile
  3126  002916                     
  3127                           ;usb_device.c: 2329:     UIEbits.ACTVIE = 0;
  3128  002916  9469               	bcf	105,2,c	;volatile
  3129                           
  3130                           ;usb_device.c: 2347:     while(UIRbits.ACTVIF)
  3131  002918  EF8F  F014         	goto	i2l3549
  3132  00291C                     i2l3547:
  3133                           
  3134                           ;usb_device.c: 2349:     {;usb_device.c: 2350:         (UIR &= 0xFB);
  3135  00291C  9468               	bcf	104,2,c	;volatile
  3136  00291E                     i2l3549:
  3137                           
  3138                           ;usb_device.c: 2347:     while(UIRbits.ACTVIF)
  3139  00291E  B468               	btfsc	104,2,c	;volatile
  3140  002920  EF94  F014         	goto	i2u254_41
  3141  002924  EF96  F014         	goto	i2u254_40
  3142  002928                     i2u254_41:
  3143  002928  EF8E  F014         	goto	i2l3547
  3144  00292C                     i2u254_40:
  3145  00292C                     
  3146                           ;usb_device.c: 2353:     USBTicksSinceSuspendEnd = 0;
  3147  00292C  0E00               	movlw	0
  3148  00292E  0100               	movlb	0	; () banked
  3149  002930  6F8A               	movwf	_USBTicksSinceSuspendEnd& (0+255),b	;volatile
  3150  002932                     
  3151                           ; BSR set to: 0
  3152  002932  0012               	return		;funcret
  3153  002934                     __end_of_USBWakeFromSuspend:
  3154                           	opt callstack 0
  3155                           
  3156 ;; *************** function _USBSuspend *****************
  3157 ;; Defined at:
  3158 ;;		line 2251 in file "usb_device.c"
  3159 ;; Parameters:    Size  Location     Type
  3160 ;;		None
  3161 ;; Auto vars:     Size  Location     Type
  3162 ;;		None
  3163 ;; Return value:  Size  Location     Type
  3164 ;;                  1    wreg      void 
  3165 ;; Registers used:
  3166 ;;		wreg, fsr2l, fsr2h, status,2, status,0, prodl, prodh, cstack
  3167 ;; Tracked objects:
  3168 ;;		On entry : 0/0
  3169 ;;		On exit  : 0/0
  3170 ;;		Unchanged: 0/0
  3171 ;; Data sizes:     COMRAM   BANK0   BANK1   BANK2   BANK3  BANK4h  BANK4l   BANK5   BANK6   BANK7
  3172 ;;      Params:         0       0       0       0       0       0       0       0       0       0
  3173 ;;      Locals:         0       0       0       0       0       0       0       0       0       0
  3174 ;;      Temps:          0       0       0       0       0       0       0       0       0       0
  3175 ;;      Totals:         0       0       0       0       0       0       0       0       0       0
  3176 ;;Total ram usage:        0 bytes
  3177 ;; Hardware stack levels used:    1
  3178 ;; Hardware stack levels required when called:    4
  3179 ;; This function calls:
  3180 ;;		_USER_USB_CALLBACK_EVENT_HANDLER
  3181 ;; This function is called by:
  3182 ;;		_USBDeviceTasks
  3183 ;; This function uses a non-reentrant model
  3184 ;;
  3185                           
  3186                           	psect	text14
  3187  0029D0                     __ptext14:
  3188                           	opt callstack 0
  3189  0029D0                     _USBSuspend:
  3190                           	opt callstack 20
  3191  0029D0                     
  3192                           ;usb_device.c: 2276:     UIEbits.ACTVIE = 1;
  3193  0029D0  8469               	bsf	105,2,c	;volatile
  3194  0029D2                     
  3195                           ;usb_device.c: 2277:     (UIR &= 0xEF);
  3196  0029D2  9868               	bcf	104,4,c	;volatile
  3197  0029D4                     
  3198                           ;usb_device.c: 2280:         UCONbits.SUSPND = 1;
  3199  0029D4  826D               	bsf	109,1,c	;volatile
  3200  0029D6                     
  3201                           ;usb_device.c: 2283:     USBBusIsSuspended = 1;
  3202  0029D6  0E01               	movlw	1
  3203  0029D8  6E24               	movwf	_USBBusIsSuspended^0,c	;volatile
  3204  0029DA                     
  3205                           ;usb_device.c: 2284:     USBTicksSinceSuspendEnd = 0;
  3206  0029DA  0E00               	movlw	0
  3207  0029DC  0100               	movlb	0	; () banked
  3208  0029DE  6F8A               	movwf	_USBTicksSinceSuspendEnd& (0+255),b	;volatile
  3209  0029E0                     
  3210                           ; BSR set to: 0
  3211                           ;usb_device.c: 2291:     USER_USB_CALLBACK_EVENT_HANDLER((USB_EVENT)EVENT_SUSPEND,0,0);
  3212  0029E0  0E00               	movlw	0
  3213  0029E2  6E38               	movwf	(USER_USB_CALLBACK_EVENT_HANDLER@event+1)^0,c
  3214  0029E4  0E75               	movlw	117
  3215  0029E6  6E37               	movwf	USER_USB_CALLBACK_EVENT_HANDLER@event^0,c
  3216  0029E8  0E00               	movlw	0
  3217  0029EA  6E39               	movwf	USER_USB_CALLBACK_EVENT_HANDLER@pdata^0,c
  3218  0029EC  0E00               	movlw	0
  3219  0029EE  6E3A               	movwf	(USER_USB_CALLBACK_EVENT_HANDLER@pdata+1)^0,c
  3220  0029F0  0E00               	movlw	0
  3221  0029F2  6E3C               	movwf	(USER_USB_CALLBACK_EVENT_HANDLER@size+1)^0,c
  3222  0029F4  0E00               	movlw	0
  3223  0029F6  6E3B               	movwf	USER_USB_CALLBACK_EVENT_HANDLER@size^0,c
  3224  0029F8  ECFE  F012         	call	_USER_USB_CALLBACK_EVENT_HANDLER	;wreg free
  3225  0029FC  0012               	return		;funcret
  3226  0029FE                     __end_of_USBSuspend:
  3227                           	opt callstack 0
  3228                           
  3229 ;; *************** function _USBStallHandler *****************
  3230 ;; Defined at:
  3231 ;;		line 2208 in file "usb_device.c"
  3232 ;; Parameters:    Size  Location     Type
  3233 ;;		None
  3234 ;; Auto vars:     Size  Location     Type
  3235 ;;		None
  3236 ;; Return value:  Size  Location     Type
  3237 ;;                  1    wreg      void 
  3238 ;; Registers used:
  3239 ;;		wreg, fsr2l, fsr2h, status,2, status,0
  3240 ;; Tracked objects:
  3241 ;;		On entry : 0/0
  3242 ;;		On exit  : 0/0
  3243 ;;		Unchanged: 0/0
  3244 ;; Data sizes:     COMRAM   BANK0   BANK1   BANK2   BANK3  BANK4h  BANK4l   BANK5   BANK6   BANK7
  3245 ;;      Params:         0       0       0       0       0       0       0       0       0       0
  3246 ;;      Locals:         0       0       0       0       0       0       0       0       0       0
  3247 ;;      Temps:          1       0       0       0       0       0       0       0       0       0
  3248 ;;      Totals:         1       0       0       0       0       0       0       0       0       0
  3249 ;;Total ram usage:        1 bytes
  3250 ;; Hardware stack levels used:    1
  3251 ;; This function calls:
  3252 ;;		Nothing
  3253 ;; This function is called by:
  3254 ;;		_USBDeviceTasks
  3255 ;; This function uses a non-reentrant model
  3256 ;;
  3257                           
  3258                           	psect	text15
  3259  00275C                     __ptext15:
  3260                           	opt callstack 0
  3261  00275C                     _USBStallHandler:
  3262                           	opt callstack 24
  3263  00275C                     
  3264                           ;usb_device.c: 2220:     if(UEP0bits.EPSTALL == 1)
  3265  00275C  A070               	btfss	112,0,c	;volatile
  3266  00275E  EFB3  F013         	goto	i2u257_41
  3267  002762  EFB5  F013         	goto	i2u257_40
  3268  002766                     i2u257_41:
  3269  002766  EFDC  F013         	goto	i2l387
  3270  00276A                     i2u257_40:
  3271  00276A                     
  3272                           ;usb_device.c: 2221:     {;usb_device.c: 2223:         if((pBDTEntryEP0OutCurrent->STAT.
      +                          Val == 0x80) && (pBDTEntryIn[0]->STAT.Val == (0x80|0x04)))
  3273  00276A  C019  FFD9         	movff	_pBDTEntryEP0OutCurrent,fsr2l
  3274  00276E  C01A  FFDA         	movff	_pBDTEntryEP0OutCurrent+1,fsr2h
  3275  002772  0E80               	movlw	128
  3276  002774  18DE               	xorwf	postinc2,w,c
  3277  002776  A4D8               	btfss	status,2,c
  3278  002778  EFC0  F013         	goto	i2u258_41
  3279  00277C  EFC2  F013         	goto	i2u258_40
  3280  002780                     i2u258_41:
  3281  002780  EFDB  F013         	goto	i2l3585
  3282  002784                     i2u258_40:
  3283  002784  C00F  FFD9         	movff	_pBDTEntryIn,fsr2l
  3284  002788  C010  FFDA         	movff	_pBDTEntryIn+1,fsr2h
  3285  00278C  0E84               	movlw	132
  3286  00278E  18DE               	xorwf	postinc2,w,c
  3287  002790  A4D8               	btfss	status,2,c
  3288  002792  EFCD  F013         	goto	i2u259_41
  3289  002796  EFCF  F013         	goto	i2u259_40
  3290  00279A                     i2u259_41:
  3291  00279A  EFDB  F013         	goto	i2l3585
  3292  00279E                     i2u259_40:
  3293  00279E                     
  3294                           ;usb_device.c: 2224:         {;usb_device.c: 2226:             pBDTEntryEP0OutCurrent->S
      +                          TAT.Val = 0x00|(0x08 & 0x08)|0x04;
  3295  00279E  C019  FFD9         	movff	_pBDTEntryEP0OutCurrent,fsr2l
  3296  0027A2  C01A  FFDA         	movff	_pBDTEntryEP0OutCurrent+1,fsr2h
  3297  0027A6  0E0C               	movlw	12
  3298  0027A8  6EDF               	movwf	indf2,c
  3299  0027AA                     
  3300                           ;usb_device.c: 2227:             pBDTEntryEP0OutCurrent->STAT.Val |= 0x80;
  3301  0027AA  C019  FFD9         	movff	_pBDTEntryEP0OutCurrent,fsr2l
  3302  0027AE  C01A  FFDA         	movff	_pBDTEntryEP0OutCurrent+1,fsr2h
  3303  0027B2  0E00               	movlw	0
  3304  0027B4  8EDB               	bsf	plusw2,7,c
  3305  0027B6                     i2l3585:
  3306                           
  3307                           ;usb_device.c: 2229:         UEP0bits.EPSTALL = 0;
  3308  0027B6  9070               	bcf	112,0,c	;volatile
  3309  0027B8                     i2l387:
  3310                           
  3311                           ;usb_device.c: 2232:     (UIR &= 0xDF);
  3312  0027B8  9A68               	bcf	104,5,c	;volatile
  3313  0027BA  0012               	return		;funcret
  3314  0027BC                     __end_of_USBStallHandler:
  3315                           	opt callstack 0
  3316                           
  3317 ;; *************** function _USBIncrement1msInternalTimers *****************
  3318 ;; Defined at:
  3319 ;;		line 3031 in file "usb_device.c"
  3320 ;; Parameters:    Size  Location     Type
  3321 ;;		None
  3322 ;; Auto vars:     Size  Location     Type
  3323 ;;		None
  3324 ;; Return value:  Size  Location     Type
  3325 ;;                  1    wreg      void 
  3326 ;; Registers used:
  3327 ;;		wreg, status,2, status,0
  3328 ;; Tracked objects:
  3329 ;;		On entry : 0/0
  3330 ;;		On exit  : 0/0
  3331 ;;		Unchanged: 0/0
  3332 ;; Data sizes:     COMRAM   BANK0   BANK1   BANK2   BANK3  BANK4h  BANK4l   BANK5   BANK6   BANK7
  3333 ;;      Params:         0       0       0       0       0       0       0       0       0       0
  3334 ;;      Locals:         0       0       0       0       0       0       0       0       0       0
  3335 ;;      Temps:          0       0       0       0       0       0       0       0       0       0
  3336 ;;      Totals:         0       0       0       0       0       0       0       0       0       0
  3337 ;;Total ram usage:        0 bytes
  3338 ;; Hardware stack levels used:    1
  3339 ;; This function calls:
  3340 ;;		Nothing
  3341 ;; This function is called by:
  3342 ;;		_USBDeviceTasks
  3343 ;; This function uses a non-reentrant model
  3344 ;;
  3345                           
  3346                           	psect	text16
  3347  00296C                     __ptext16:
  3348                           	opt callstack 0
  3349  00296C                     _USBIncrement1msInternalTimers:
  3350                           	opt callstack 24
  3351  00296C                     
  3352                           ;usb_device.c: 3039:     USB1msTickCount++;
  3353  00296C  0E01               	movlw	1
  3354  00296E  0100               	movlb	0	; () banked
  3355  002970  2774               	addwf	_USB1msTickCount& (0+255),f,b	;volatile
  3356  002972  0E00               	movlw	0
  3357  002974  2375               	addwfc	(_USB1msTickCount+1)& (0+255),f,b	;volatile
  3358  002976  2376               	addwfc	(_USB1msTickCount+2)& (0+255),f,b	;volatile
  3359  002978  2377               	addwfc	(_USB1msTickCount+3)& (0+255),f,b	;volatile
  3360  00297A                     
  3361                           ; BSR set to: 0
  3362                           ;usb_device.c: 3040:     if(USBBusIsSuspended == 0)
  3363  00297A  5024               	movf	_USBBusIsSuspended^0,w,c	;volatile
  3364  00297C  A4D8               	btfss	status,2,c
  3365  00297E  EFC3  F014         	goto	i2u255_41
  3366  002982  EFC5  F014         	goto	i2u255_40
  3367  002986                     i2u255_41:
  3368  002986  EFCF  F014         	goto	i2l479
  3369  00298A                     i2u255_40:
  3370  00298A                     
  3371                           ; BSR set to: 0
  3372                           ;usb_device.c: 3041:     {;usb_device.c: 3042:         USBTicksSinceSuspendEnd++;
  3373  00298A  2B8A               	incf	_USBTicksSinceSuspendEnd& (0+255),f,b	;volatile
  3374  00298C                     
  3375                           ; BSR set to: 0
  3376                           ;usb_device.c: 3044:         if(USBTicksSinceSuspendEnd == 0)
  3377  00298C  518A               	movf	_USBTicksSinceSuspendEnd& (0+255),w,b	;volatile
  3378  00298E  A4D8               	btfss	status,2,c
  3379  002990  EFCC  F014         	goto	i2u256_41
  3380  002994  EFCE  F014         	goto	i2u256_40
  3381  002998                     i2u256_41:
  3382  002998  EFCF  F014         	goto	i2l479
  3383  00299C                     i2u256_40:
  3384  00299C                     
  3385                           ; BSR set to: 0
  3386                           ;usb_device.c: 3045:         {;usb_device.c: 3046:             USBTicksSinceSuspendEnd =
      +                           255;
  3387  00299C  698A               	setf	_USBTicksSinceSuspendEnd& (0+255),b	;volatile
  3388  00299E                     i2l479:
  3389                           
  3390                           ; BSR set to: 0
  3391  00299E  0012               	return		;funcret
  3392  0029A0                     __end_of_USBIncrement1msInternalTimers:
  3393                           	opt callstack 0
  3394                           
  3395 ;; *************** function _USBCtrlEPService *****************
  3396 ;; Defined at:
  3397 ;;		line 2378 in file "usb_device.c"
  3398 ;; Parameters:    Size  Location     Type
  3399 ;;		None
  3400 ;; Auto vars:     Size  Location     Type
  3401 ;;		None
  3402 ;; Return value:  Size  Location     Type
  3403 ;;                  1    wreg      void 
  3404 ;; Registers used:
  3405 ;;		wreg, fsr1l, fsr1h, fsr2l, fsr2h, status,2, status,0, tblptrl, tblptrh, tblptru, prodl, prodh, cstack
  3406 ;; Tracked objects:
  3407 ;;		On entry : 0/0
  3408 ;;		On exit  : 0/0
  3409 ;;		Unchanged: 0/0
  3410 ;; Data sizes:     COMRAM   BANK0   BANK1   BANK2   BANK3  BANK4h  BANK4l   BANK5   BANK6   BANK7
  3411 ;;      Params:         0       0       0       0       0       0       0       0       0       0
  3412 ;;      Locals:         0       0       0       0       0       0       0       0       0       0
  3413 ;;      Temps:          1       0       0       0       0       0       0       0       0       0
  3414 ;;      Totals:         1       0       0       0       0       0       0       0       0       0
  3415 ;;Total ram usage:        1 bytes
  3416 ;; Hardware stack levels used:    1
  3417 ;; Hardware stack levels required when called:    7
  3418 ;; This function calls:
  3419 ;;		_USBCtrlTrfInHandler
  3420 ;;		_USBCtrlTrfOutHandler
  3421 ;;		_USBCtrlTrfSetupHandler
  3422 ;;		_memcpy
  3423 ;; This function is called by:
  3424 ;;		_USBDeviceTasks
  3425 ;; This function uses a non-reentrant model
  3426 ;;
  3427                           
  3428                           	psect	text17
  3429  0022BC                     __ptext17:
  3430                           	opt callstack 0
  3431  0022BC                     _USBCtrlEPService:
  3432                           	opt callstack 17
  3433  0022BC                     
  3434                           ;usb_device.c: 2384:         USBStatusStageTimeoutCounter = (uint8_t)45;
  3435  0022BC  0E2D               	movlw	45
  3436  0022BE  6E21               	movwf	_USBStatusStageTimeoutCounter^0,c	;volatile
  3437  0022C0                     
  3438                           ;usb_device.c: 2388:     if((USTATcopy.Val & ~0x02) == 0x00)
  3439  0022C0  C029  F048         	movff	_USTATcopy,??_USBCtrlEPService	;volatile
  3440  0022C4  0EFD               	movlw	253
  3441  0022C6  1648               	andwf	??_USBCtrlEPService^0,f,c
  3442  0022C8  A4D8               	btfss	status,2,c
  3443  0022CA  EF69  F011         	goto	i2u260_41
  3444  0022CE  EF6B  F011         	goto	i2u260_40
  3445  0022D2                     i2u260_41:
  3446  0022D2  EFAD  F011         	goto	i2l3605
  3447  0022D6                     i2u260_40:
  3448  0022D6                     
  3449                           ;usb_device.c: 2389:     {;usb_device.c: 2392:             pBDTEntryEP0OutCurrent = (vol
      +                          atile BDT_ENTRY*)&BDT[(USTATcopy.Val & 0x7E)>>1];
  3450  0022D6  C029  F048         	movff	_USTATcopy,??_USBCtrlEPService	;volatile
  3451  0022DA  90D8               	bcf	status,0,c
  3452  0022DC  3248               	rrcf	??_USBCtrlEPService^0,f,c
  3453  0022DE  0E3F               	movlw	63
  3454  0022E0  1648               	andwf	??_USBCtrlEPService^0,f,c
  3455  0022E2  5048               	movf	??_USBCtrlEPService^0,w,c
  3456  0022E4  0D04               	mullw	4
  3457  0022E6  0E00               	movlw	0
  3458  0022E8  24F3               	addwf	243,w,c
  3459  0022EA  6E19               	movwf	_pBDTEntryEP0OutCurrent^0,c
  3460  0022EC  0E04               	movlw	4
  3461  0022EE  20F4               	addwfc	prodh,w,c
  3462  0022F0  6E1A               	movwf	(_pBDTEntryEP0OutCurrent+1)^0,c
  3463  0022F2                     
  3464                           ;usb_device.c: 2400:         pBDTEntryEP0OutNext = pBDTEntryEP0OutCurrent;
  3465  0022F2  C019  F017         	movff	_pBDTEntryEP0OutCurrent,_pBDTEntryEP0OutNext
  3466  0022F6  C01A  F018         	movff	_pBDTEntryEP0OutCurrent+1,_pBDTEntryEP0OutNext+1
  3467  0022FA                     
  3468                           ;usb_device.c: 2402:         pBDTEntryEP0OutNext = (volatile BDT_ENTRY*)(((uint16_t)pBDT
      +                          EntryEP0OutNext) ^ 0x0004);
  3469  0022FA  0E04               	movlw	4
  3470  0022FC  1817               	xorwf	_pBDTEntryEP0OutNext^0,w,c
  3471  0022FE  6E17               	movwf	_pBDTEntryEP0OutNext^0,c
  3472  002300  5018               	movf	(_pBDTEntryEP0OutNext+1)^0,w,c
  3473  002302  6E18               	movwf	(_pBDTEntryEP0OutNext+1)^0,c
  3474  002304                     
  3475                           ;usb_device.c: 2405:         if(pBDTEntryEP0OutCurrent->STAT.PID == 0xD)
  3476  002304  C019  FFD9         	movff	_pBDTEntryEP0OutCurrent,fsr2l
  3477  002308  C01A  FFDA         	movff	_pBDTEntryEP0OutCurrent+1,fsr2h
  3478  00230C  30DF               	rrcf	indf2,w,c
  3479  00230E  32E8               	rrcf	wreg,f,c
  3480  002310  0B0F               	andlw	15
  3481  002312  0A0D               	xorlw	13
  3482  002314  A4D8               	btfss	status,2,c
  3483  002316  EF8F  F011         	goto	i2u261_41
  3484  00231A  EF91  F011         	goto	i2u261_40
  3485  00231E                     i2u261_41:
  3486  00231E  EFA9  F011         	goto	i2l3603
  3487  002322                     i2u261_40:
  3488  002322                     
  3489                           ;usb_device.c: 2406:         {;usb_device.c: 2411:             memcpy((uint8_t*)&SetupPk
      +                          t, (uint8_t*)((void *)(pBDTEntryEP0OutCurrent->ADR)), 8);
  3490  002322  0E30               	movlw	48
  3491  002324  6E2B               	movwf	memcpy@d1^0,c
  3492  002326  0E04               	movlw	4
  3493  002328  6E2C               	movwf	(memcpy@d1+1)^0,c
  3494  00232A  EE20 F002          	lfsr	2,2
  3495  00232E  5019               	movf	_pBDTEntryEP0OutCurrent^0,w,c
  3496  002330  26D9               	addwf	fsr2l,f,c
  3497  002332  501A               	movf	(_pBDTEntryEP0OutCurrent+1)^0,w,c
  3498  002334  22DA               	addwfc	fsr2h,f,c
  3499  002336  CFDE F02D          	movff	postinc2,memcpy@s1
  3500  00233A  CFDD F02E          	movff	postdec2,memcpy@s1+1
  3501  00233E  0E00               	movlw	0
  3502  002340  6E30               	movwf	(memcpy@n+1)^0,c
  3503  002342  0E08               	movlw	8
  3504  002344  6E2F               	movwf	memcpy@n^0,c
  3505  002346  EC0B  F014         	call	_memcpy	;wreg free
  3506  00234A                     
  3507                           ;usb_device.c: 2414:             USBCtrlTrfSetupHandler();
  3508  00234A  ECB6  F012         	call	_USBCtrlTrfSetupHandler	;wreg free
  3509                           
  3510                           ;usb_device.c: 2415:         }
  3511  00234E  EFB9  F011         	goto	i2l406
  3512  002352                     i2l3603:
  3513                           
  3514                           ;usb_device.c: 2417:         {;usb_device.c: 2419:             USBCtrlTrfOutHandler();
  3515  002352  EC42  F013         	call	_USBCtrlTrfOutHandler	;wreg free
  3516  002356  EFB9  F011         	goto	i2l406
  3517  00235A                     i2l3605:
  3518  00235A  5029               	movf	_USTATcopy^0,w,c	;volatile
  3519  00235C  0BFD               	andlw	253
  3520  00235E  0A04               	xorlw	4
  3521  002360  A4D8               	btfss	status,2,c
  3522  002362  EFB5  F011         	goto	i2u262_41
  3523  002366  EFB7  F011         	goto	i2u262_40
  3524  00236A                     i2u262_41:
  3525  00236A  EFB9  F011         	goto	i2l406
  3526  00236E                     i2u262_40:
  3527  00236E                     
  3528                           ;usb_device.c: 2423:     {;usb_device.c: 2426:         USBCtrlTrfInHandler();
  3529  00236E  ECEF  F00E         	call	_USBCtrlTrfInHandler	;wreg free
  3530  002372                     i2l406:
  3531  002372  0012               	return		;funcret
  3532  002374                     __end_of_USBCtrlEPService:
  3533                           	opt callstack 0
  3534                           
  3535 ;; *************** function _memcpy *****************
  3536 ;; Defined at:
  3537 ;;		line 4 in file "C:\Program Files (x86)\Microchip\xc8\v2.10\pic\sources\c99\common\memcpy.c"
  3538 ;; Parameters:    Size  Location     Type
  3539 ;;  d1              2    0[COMRAM] PTR void 
  3540 ;;		 -> SetupPkt(8), 
  3541 ;;  s1              2    2[COMRAM] PTR const void 
  3542 ;;		 -> CtrlTrfData(32), RAM(2047), SetupPkt(8), 
  3543 ;;  n               2    4[COMRAM] unsigned int 
  3544 ;; Auto vars:     Size  Location     Type
  3545 ;;  s               2    8[COMRAM] PTR const unsigned char 
  3546 ;;		 -> CtrlTrfData(32), RAM(2047), SetupPkt(8), 
  3547 ;;  d               2    6[COMRAM] PTR unsigned char 
  3548 ;;		 -> SetupPkt(8), 
  3549 ;;  tmp             1   10[COMRAM] unsigned char 
  3550 ;; Return value:  Size  Location     Type
  3551 ;;                  2    0[COMRAM] PTR void 
  3552 ;; Registers used:
  3553 ;;		wreg, fsr2l, fsr2h, status,2, status,0
  3554 ;; Tracked objects:
  3555 ;;		On entry : 0/0
  3556 ;;		On exit  : 0/0
  3557 ;;		Unchanged: 0/0
  3558 ;; Data sizes:     COMRAM   BANK0   BANK1   BANK2   BANK3  BANK4h  BANK4l   BANK5   BANK6   BANK7
  3559 ;;      Params:         6       0       0       0       0       0       0       0       0       0
  3560 ;;      Locals:         5       0       0       0       0       0       0       0       0       0
  3561 ;;      Temps:          0       0       0       0       0       0       0       0       0       0
  3562 ;;      Totals:        11       0       0       0       0       0       0       0       0       0
  3563 ;;Total ram usage:       11 bytes
  3564 ;; Hardware stack levels used:    1
  3565 ;; This function calls:
  3566 ;;		Nothing
  3567 ;; This function is called by:
  3568 ;;		_USBCtrlEPService
  3569 ;; This function uses a non-reentrant model
  3570 ;;
  3571                           
  3572                           	psect	text18
  3573  002816                     __ptext18:
  3574                           	opt callstack 0
  3575  002816                     _memcpy:
  3576                           	opt callstack 23
  3577  002816  C02D  F033         	movff	memcpy@s1,memcpy@s
  3578  00281A  C02E  F034         	movff	memcpy@s1+1,memcpy@s+1
  3579  00281E  C02B  F031         	movff	memcpy@d1,memcpy@d
  3580  002822  C02C  F032         	movff	memcpy@d1+1,memcpy@d+1
  3581  002826  EF25  F014         	goto	i2l3425
  3582  00282A                     i2l3417:
  3583  00282A  C033  FFD9         	movff	memcpy@s,fsr2l
  3584  00282E  C034  FFDA         	movff	memcpy@s+1,fsr2h
  3585  002832  50DF               	movf	indf2,w,c
  3586  002834  6E35               	movwf	memcpy@tmp^0,c
  3587  002836  4A33               	infsnz	memcpy@s^0,f,c
  3588  002838  2A34               	incf	(memcpy@s+1)^0,f,c
  3589  00283A  C031  FFD9         	movff	memcpy@d,fsr2l
  3590  00283E  C032  FFDA         	movff	memcpy@d+1,fsr2h
  3591  002842  C035  FFDF         	movff	memcpy@tmp,indf2
  3592  002846  4A31               	infsnz	memcpy@d^0,f,c
  3593  002848  2A32               	incf	(memcpy@d+1)^0,f,c
  3594  00284A                     i2l3425:
  3595  00284A  062F               	decf	memcpy@n^0,f,c
  3596  00284C  A0D8               	btfss	status,0,c
  3597  00284E  0630               	decf	(memcpy@n+1)^0,f,c
  3598  002850  282F               	incf	memcpy@n^0,w,c
  3599  002852  E106               	bnz	i2u240_41
  3600  002854  2830               	incf	(memcpy@n+1)^0,w,c
  3601  002856  A4D8               	btfss	status,2,c
  3602  002858  EF30  F014         	goto	i2u240_41
  3603  00285C  EF32  F014         	goto	i2u240_40
  3604  002860                     i2u240_41:
  3605  002860  EF15  F014         	goto	i2l3417
  3606  002864                     i2u240_40:
  3607  002864  0012               	return		;funcret
  3608  002866                     __end_of_memcpy:
  3609                           	opt callstack 0
  3610                           
  3611 ;; *************** function _USBCtrlTrfSetupHandler *****************
  3612 ;; Defined at:
  3613 ;;		line 2471 in file "usb_device.c"
  3614 ;; Parameters:    Size  Location     Type
  3615 ;;		None
  3616 ;; Auto vars:     Size  Location     Type
  3617 ;;		None
  3618 ;; Return value:  Size  Location     Type
  3619 ;;                  1    wreg      void 
  3620 ;; Registers used:
  3621 ;;		wreg, fsr1l, fsr1h, fsr2l, fsr2h, status,2, status,0, tblptrl, tblptrh, tblptru, prodl, prodh, cstack
  3622 ;; Tracked objects:
  3623 ;;		On entry : 0/0
  3624 ;;		On exit  : 0/0
  3625 ;;		Unchanged: 0/0
  3626 ;; Data sizes:     COMRAM   BANK0   BANK1   BANK2   BANK3  BANK4h  BANK4l   BANK5   BANK6   BANK7
  3627 ;;      Params:         0       0       0       0       0       0       0       0       0       0
  3628 ;;      Locals:         0       0       0       0       0       0       0       0       0       0
  3629 ;;      Temps:          0       0       0       0       0       0       0       0       0       0
  3630 ;;      Totals:         0       0       0       0       0       0       0       0       0       0
  3631 ;;Total ram usage:        0 bytes
  3632 ;; Hardware stack levels used:    1
  3633 ;; Hardware stack levels required when called:    6
  3634 ;; This function calls:
  3635 ;;		_USBCheckStdRequest
  3636 ;;		_USBCtrlEPServiceComplete
  3637 ;;		_USER_USB_CALLBACK_EVENT_HANDLER
  3638 ;; This function is called by:
  3639 ;;		_USBCtrlEPService
  3640 ;; This function uses a non-reentrant model
  3641 ;;
  3642                           
  3643                           	psect	text19
  3644  00256C                     __ptext19:
  3645                           	opt callstack 0
  3646  00256C                     _USBCtrlTrfSetupHandler:
  3647                           	opt callstack 17
  3648  00256C                     
  3649                           ;usb_device.c: 2476:     shortPacketStatus = 0;
  3650  00256C  0E00               	movlw	0
  3651  00256E  6E27               	movwf	_shortPacketStatus^0,c	;volatile
  3652                           
  3653                           ;usb_device.c: 2477:     USBDeferStatusStagePacket = 0;
  3654  002570  0E00               	movlw	0
  3655  002572  6E20               	movwf	_USBDeferStatusStagePacket^0,c	;volatile
  3656                           
  3657                           ;usb_device.c: 2478:     USBDeferINDataStagePackets = 0;
  3658  002574  0E00               	movlw	0
  3659  002576  0100               	movlb	0	; () banked
  3660  002578  6F8C               	movwf	_USBDeferINDataStagePackets& (0+255),b	;volatile
  3661                           
  3662                           ;usb_device.c: 2479:     USBDeferOUTDataStagePackets = 0;
  3663  00257A  0E00               	movlw	0
  3664  00257C  6F8B               	movwf	_USBDeferOUTDataStagePackets& (0+255),b	;volatile
  3665                           
  3666                           ;usb_device.c: 2480:     BothEP0OutUOWNsSet = 0;
  3667  00257E  0E00               	movlw	0
  3668  002580  6E22               	movwf	_BothEP0OutUOWNsSet^0,c	;volatile
  3669                           
  3670                           ;usb_device.c: 2481:     controlTransferState = 0;
  3671  002582  0E00               	movlw	0
  3672  002584  6E26               	movwf	_controlTransferState^0,c	;volatile
  3673  002586                     
  3674                           ; BSR set to: 0
  3675                           ;usb_device.c: 2490:     pBDTEntryIn[0]->STAT.Val &= ~(0x80);
  3676  002586  C00F  FFD9         	movff	_pBDTEntryIn,fsr2l
  3677  00258A  C010  FFDA         	movff	_pBDTEntryIn+1,fsr2h
  3678  00258E  0E7F               	movlw	127
  3679  002590  16DF               	andwf	indf2,f,c
  3680  002592                     
  3681                           ; BSR set to: 0
  3682                           ;usb_device.c: 2492:     pBDTEntryIn[0] = (volatile BDT_ENTRY*)(((uint16_t)pBDTEntryIn[0
      +                          ]) ^ 0x0004);
  3683  002592  0E04               	movlw	4
  3684  002594  180F               	xorwf	_pBDTEntryIn^0,w,c
  3685  002596  6E0F               	movwf	_pBDTEntryIn^0,c
  3686  002598  5010               	movf	(_pBDTEntryIn+1)^0,w,c
  3687  00259A  6E10               	movwf	(_pBDTEntryIn+1)^0,c
  3688  00259C                     
  3689                           ; BSR set to: 0
  3690                           ;usb_device.c: 2493:     pBDTEntryIn[0]->STAT.Val &= ~(0x80);
  3691  00259C  C00F  FFD9         	movff	_pBDTEntryIn,fsr2l
  3692  0025A0  C010  FFDA         	movff	_pBDTEntryIn+1,fsr2h
  3693  0025A4  0E7F               	movlw	127
  3694  0025A6  16DF               	andwf	indf2,f,c
  3695  0025A8                     
  3696                           ; BSR set to: 0
  3697                           ;usb_device.c: 2494:     pBDTEntryIn[0] = (volatile BDT_ENTRY*)(((uint16_t)pBDTEntryIn[0
      +                          ]) ^ 0x0004);
  3698  0025A8  0E04               	movlw	4
  3699  0025AA  180F               	xorwf	_pBDTEntryIn^0,w,c
  3700  0025AC  6E0F               	movwf	_pBDTEntryIn^0,c
  3701  0025AE  5010               	movf	(_pBDTEntryIn+1)^0,w,c
  3702  0025B0  6E10               	movwf	(_pBDTEntryIn+1)^0,c
  3703  0025B2                     
  3704                           ; BSR set to: 0
  3705                           ;usb_device.c: 2495:     pBDTEntryEP0OutNext->STAT.Val &= ~(0x80);
  3706  0025B2  C017  FFD9         	movff	_pBDTEntryEP0OutNext,fsr2l
  3707  0025B6  C018  FFDA         	movff	_pBDTEntryEP0OutNext+1,fsr2h
  3708  0025BA  0E7F               	movlw	127
  3709  0025BC  16DF               	andwf	indf2,f,c
  3710  0025BE                     
  3711                           ; BSR set to: 0
  3712                           ;usb_device.c: 2497:     inPipes[0].info.Val = 0;
  3713  0025BE  0E00               	movlw	0
  3714  0025C0  6E0C               	movwf	(_inPipes+3)^0,c	;volatile
  3715  0025C2                     
  3716                           ; BSR set to: 0
  3717                           ;usb_device.c: 2498:     inPipes[0].wCount.Val = 0;
  3718  0025C2  0E00               	movlw	0
  3719  0025C4  6E0E               	movwf	(_inPipes+5)^0,c	;volatile
  3720  0025C6  0E00               	movlw	0
  3721  0025C8  6E0D               	movwf	(_inPipes+4)^0,c	;volatile
  3722  0025CA                     
  3723                           ; BSR set to: 0
  3724                           ;usb_device.c: 2499:     outPipes[0].info.Val = 0;
  3725  0025CA  0E00               	movlw	0
  3726  0025CC  6E04               	movwf	(_outPipes+3)^0,c	;volatile
  3727  0025CE                     
  3728                           ; BSR set to: 0
  3729                           ;usb_device.c: 2500:     outPipes[0].wCount.Val = 0;
  3730  0025CE  0E00               	movlw	0
  3731  0025D0  6E06               	movwf	(_outPipes+5)^0,c	;volatile
  3732  0025D2  0E00               	movlw	0
  3733  0025D4  6E05               	movwf	(_outPipes+4)^0,c	;volatile
  3734  0025D6                     
  3735                           ; BSR set to: 0
  3736                           ;usb_device.c: 2506:     USBCheckStdRequest();
  3737  0025D6  ECD9  F00D         	call	_USBCheckStdRequest	;wreg free
  3738  0025DA                     
  3739                           ;usb_device.c: 2507:     USER_USB_CALLBACK_EVENT_HANDLER((USB_EVENT)EVENT_EP0_REQUEST,0,
      +                          0);
  3740  0025DA  0E00               	movlw	0
  3741  0025DC  6E38               	movwf	(USER_USB_CALLBACK_EVENT_HANDLER@event+1)^0,c
  3742  0025DE  0E03               	movlw	3
  3743  0025E0  6E37               	movwf	USER_USB_CALLBACK_EVENT_HANDLER@event^0,c
  3744  0025E2  0E00               	movlw	0
  3745  0025E4  6E39               	movwf	USER_USB_CALLBACK_EVENT_HANDLER@pdata^0,c
  3746  0025E6  0E00               	movlw	0
  3747  0025E8  6E3A               	movwf	(USER_USB_CALLBACK_EVENT_HANDLER@pdata+1)^0,c
  3748  0025EA  0E00               	movlw	0
  3749  0025EC  6E3C               	movwf	(USER_USB_CALLBACK_EVENT_HANDLER@size+1)^0,c
  3750  0025EE  0E00               	movlw	0
  3751  0025F0  6E3B               	movwf	USER_USB_CALLBACK_EVENT_HANDLER@size^0,c
  3752  0025F2  ECFE  F012         	call	_USER_USB_CALLBACK_EVENT_HANDLER	;wreg free
  3753  0025F6                     
  3754                           ;usb_device.c: 2520:     USBCtrlEPServiceComplete();
  3755  0025F6  EC56  F00B         	call	_USBCtrlEPServiceComplete	;wreg free
  3756  0025FA  0012               	return		;funcret
  3757  0025FC                     __end_of_USBCtrlTrfSetupHandler:
  3758                           	opt callstack 0
  3759                           
  3760 ;; *************** function _USBCtrlEPServiceComplete *****************
  3761 ;; Defined at:
  3762 ;;		line 1622 in file "usb_device.c"
  3763 ;; Parameters:    Size  Location     Type
  3764 ;;		None
  3765 ;; Auto vars:     Size  Location     Type
  3766 ;;		None
  3767 ;; Return value:  Size  Location     Type
  3768 ;;                  1    wreg      void 
  3769 ;; Registers used:
  3770 ;;		wreg, fsr1l, fsr1h, fsr2l, fsr2h, status,2, status,0, tblptrl, tblptrh, tblptru, cstack
  3771 ;; Tracked objects:
  3772 ;;		On entry : 0/0
  3773 ;;		On exit  : 0/0
  3774 ;;		Unchanged: 0/0
  3775 ;; Data sizes:     COMRAM   BANK0   BANK1   BANK2   BANK3  BANK4h  BANK4l   BANK5   BANK6   BANK7
  3776 ;;      Params:         0       0       0       0       0       0       0       0       0       0
  3777 ;;      Locals:         0       0       0       0       0       0       0       0       0       0
  3778 ;;      Temps:          0       0       0       0       0       0       0       0       0       0
  3779 ;;      Totals:         0       0       0       0       0       0       0       0       0       0
  3780 ;;Total ram usage:        0 bytes
  3781 ;; Hardware stack levels used:    1
  3782 ;; Hardware stack levels required when called:    2
  3783 ;; This function calls:
  3784 ;;		_USBCtrlEPAllowDataStage
  3785 ;;		_USBCtrlEPAllowStatusStage
  3786 ;; This function is called by:
  3787 ;;		_USBCtrlTrfSetupHandler
  3788 ;; This function uses a non-reentrant model
  3789 ;;
  3790                           
  3791                           	psect	text20
  3792  0016AC                     __ptext20:
  3793                           	opt callstack 0
  3794  0016AC                     _USBCtrlEPServiceComplete:
  3795                           	opt callstack 20
  3796  0016AC                     
  3797                           ;usb_device.c: 1628:     UCONbits.PKTDIS = 0;
  3798  0016AC  986D               	bcf	109,4,c	;volatile
  3799                           
  3800                           ;usb_device.c: 1634:     if(inPipes[0].info.bits.busy == 0)
  3801  0016AE  BE0C               	btfsc	(_inPipes+3)^0,7,c	;volatile
  3802  0016B0  EF5C  F00B         	goto	i2u227_41
  3803  0016B4  EF5E  F00B         	goto	i2u227_40
  3804  0016B8                     i2u227_41:
  3805  0016B8  EFA4  F00B         	goto	i2l311
  3806  0016BC                     i2u227_40:
  3807  0016BC                     
  3808                           ;usb_device.c: 1635:     {;usb_device.c: 1636:         if(outPipes[0].info.bits.busy == 
      +                          1)
  3809  0016BC  AE04               	btfss	(_outPipes+3)^0,7,c	;volatile
  3810  0016BE  EF63  F00B         	goto	i2u228_41
  3811  0016C2  EF65  F00B         	goto	i2u228_40
  3812  0016C6                     i2u228_41:
  3813  0016C6  EF78  F00B         	goto	i2l3289
  3814  0016CA                     i2u228_40:
  3815  0016CA                     
  3816                           ;usb_device.c: 1637:         {;usb_device.c: 1638:             controlTransferState = 2;
  3817  0016CA  0E02               	movlw	2
  3818  0016CC  6E26               	movwf	_controlTransferState^0,c	;volatile
  3819                           
  3820                           ;usb_device.c: 1649:             if(USBDeferOUTDataStagePackets == 0)
  3821  0016CE  0100               	movlb	0	; () banked
  3822  0016D0  518B               	movf	_USBDeferOUTDataStagePackets& (0+255),w,b	;volatile
  3823  0016D2  A4D8               	btfss	status,2,c
  3824  0016D4  EF6E  F00B         	goto	i2u229_41
  3825  0016D8  EF70  F00B         	goto	i2u229_40
  3826  0016DC                     i2u229_41:
  3827  0016DC  EF72  F00B         	goto	i2l3285
  3828  0016E0                     i2u229_40:
  3829  0016E0                     
  3830                           ; BSR set to: 0
  3831                           ;usb_device.c: 1650:             {;usb_device.c: 1651:                 USBCtrlEPAllowDat
      +                          aStage();
  3832  0016E0  ECBA  F011         	call	_USBCtrlEPAllowDataStage	;wreg free
  3833  0016E4                     i2l3285:
  3834                           
  3835                           ;usb_device.c: 1656:             USBStatusStageEnabledFlag2 = 0;
  3836  0016E4  0E00               	movlw	0
  3837  0016E6  6E1E               	movwf	_USBStatusStageEnabledFlag2^0,c	;volatile
  3838  0016E8                     
  3839                           ;usb_device.c: 1657:             USBStatusStageEnabledFlag1 = 0;
  3840  0016E8  0E00               	movlw	0
  3841  0016EA  6E1F               	movwf	_USBStatusStageEnabledFlag1^0,c	;volatile
  3842                           
  3843                           ;usb_device.c: 1658:         }
  3844  0016EC  EFF7  F00B         	goto	i2l321
  3845  0016F0                     i2l3289:
  3846                           
  3847                           ;usb_device.c: 1660:         {;usb_device.c: 1665:             pBDTEntryEP0OutNext->CNT 
      +                          = 32;
  3848  0016F0  EE20 F001          	lfsr	2,1
  3849  0016F4  5017               	movf	_pBDTEntryEP0OutNext^0,w,c
  3850  0016F6  26D9               	addwf	fsr2l,f,c
  3851  0016F8  5018               	movf	(_pBDTEntryEP0OutNext+1)^0,w,c
  3852  0016FA  22DA               	addwfc	fsr2h,f,c
  3853  0016FC  0E20               	movlw	32
  3854  0016FE  6EDF               	movwf	indf2,c
  3855                           
  3856                           ;usb_device.c: 1666:             pBDTEntryEP0OutNext->ADR = ((uint16_t)(&SetupPkt));
  3857  001700  EE20 F002          	lfsr	2,2
  3858  001704  5017               	movf	_pBDTEntryEP0OutNext^0,w,c
  3859  001706  26D9               	addwf	fsr2l,f,c
  3860  001708  5018               	movf	(_pBDTEntryEP0OutNext+1)^0,w,c
  3861  00170A  22DA               	addwfc	fsr2h,f,c
  3862  00170C  0E30               	movlw	48
  3863  00170E  6EDE               	movwf	postinc2,c
  3864  001710  0E04               	movlw	4
  3865  001712  6EDD               	movwf	postdec2,c
  3866  001714                     
  3867                           ;usb_device.c: 1667:             pBDTEntryEP0OutNext->STAT.Val = 0x00|(0x08 & 0x08)|0x04
      +                          ;
  3868  001714  C017  FFD9         	movff	_pBDTEntryEP0OutNext,fsr2l
  3869  001718  C018  FFDA         	movff	_pBDTEntryEP0OutNext+1,fsr2h
  3870  00171C  0E0C               	movlw	12
  3871  00171E  6EDF               	movwf	indf2,c
  3872  001720                     
  3873                           ;usb_device.c: 1668:             pBDTEntryEP0OutNext->STAT.Val |= 0x80;
  3874  001720  C017  FFD9         	movff	_pBDTEntryEP0OutNext,fsr2l
  3875  001724  C018  FFDA         	movff	_pBDTEntryEP0OutNext+1,fsr2h
  3876  001728  0E00               	movlw	0
  3877  00172A  8EDB               	bsf	plusw2,7,c
  3878                           
  3879                           ;usb_device.c: 1669:             pBDTEntryIn[0]->STAT.Val = 0x04;
  3880  00172C  C00F  FFD9         	movff	_pBDTEntryIn,fsr2l
  3881  001730  C010  FFDA         	movff	_pBDTEntryIn+1,fsr2h
  3882  001734  0E04               	movlw	4
  3883  001736  6EDF               	movwf	indf2,c
  3884  001738                     
  3885                           ;usb_device.c: 1670:             pBDTEntryIn[0]->STAT.Val |= 0x80;
  3886  001738  C00F  FFD9         	movff	_pBDTEntryIn,fsr2l
  3887  00173C  C010  FFDA         	movff	_pBDTEntryIn+1,fsr2h
  3888  001740  0E00               	movlw	0
  3889  001742  8EDB               	bsf	plusw2,7,c
  3890  001744  EFF7  F00B         	goto	i2l321
  3891  001748                     i2l311:
  3892                           
  3893                           ;usb_device.c: 1674:     {;usb_device.c: 1675:   if(SetupPkt.DataDir == (0x80>>7))
  3894  001748  0104               	movlb	4	; () banked
  3895  00174A  AF30               	btfss	48,7,b	;volatile
  3896  00174C  EFAA  F00B         	goto	i2u230_41
  3897  001750  EFAC  F00B         	goto	i2u230_40
  3898  001754                     i2u230_41:
  3899  001754  EFC9  F00B         	goto	i2l3309
  3900  001758                     i2u230_40:
  3901  001758                     
  3902                           ; BSR set to: 4
  3903                           ;usb_device.c: 1676:   {;usb_device.c: 1677:    controlTransferState = 1;
  3904  001758  0E01               	movlw	1
  3905  00175A  6E26               	movwf	_controlTransferState^0,c	;volatile
  3906                           
  3907                           ;usb_device.c: 1691:    if(USBDeferINDataStagePackets == 0)
  3908  00175C  0100               	movlb	0	; () banked
  3909  00175E  518C               	movf	_USBDeferINDataStagePackets& (0+255),w,b	;volatile
  3910  001760  A4D8               	btfss	status,2,c
  3911  001762  EFB5  F00B         	goto	i2u231_41
  3912  001766  EFB7  F00B         	goto	i2u231_40
  3913  00176A                     i2u231_41:
  3914  00176A  EFB9  F00B         	goto	i2l3301
  3915  00176E                     i2u231_40:
  3916  00176E                     
  3917                           ; BSR set to: 0
  3918                           ;usb_device.c: 1692:             {;usb_device.c: 1693:                 USBCtrlEPAllowDat
      +                          aStage();
  3919  00176E  ECBA  F011         	call	_USBCtrlEPAllowDataStage	;wreg free
  3920  001772                     i2l3301:
  3921                           
  3922                           ;usb_device.c: 1716:             USBStatusStageEnabledFlag2 = 0;
  3923  001772  0E00               	movlw	0
  3924  001774  6E1E               	movwf	_USBStatusStageEnabledFlag2^0,c	;volatile
  3925  001776                     
  3926                           ;usb_device.c: 1717:             USBStatusStageEnabledFlag1 = 0;
  3927  001776  0E00               	movlw	0
  3928  001778  6E1F               	movwf	_USBStatusStageEnabledFlag1^0,c	;volatile
  3929  00177A                     
  3930                           ;usb_device.c: 1718:             if(USBDeferStatusStagePacket == 0)
  3931  00177A  5020               	movf	_USBDeferStatusStagePacket^0,w,c	;volatile
  3932  00177C  A4D8               	btfss	status,2,c
  3933  00177E  EFC3  F00B         	goto	i2u232_41
  3934  001782  EFC5  F00B         	goto	i2u232_40
  3935  001786                     i2u232_41:
  3936  001786  EFF7  F00B         	goto	i2l321
  3937  00178A                     i2u232_40:
  3938  00178A                     i2l3307:
  3939                           
  3940                           ;usb_device.c: 1719:             {;usb_device.c: 1720:                 USBCtrlEPAllowSta
      +                          tusStage();
  3941  00178A  EC73  F010         	call	_USBCtrlEPAllowStatusStage	;wreg free
  3942  00178E  EFF7  F00B         	goto	i2l321
  3943  001792                     i2l3309:
  3944                           
  3945                           ; BSR set to: 4
  3946                           ;usb_device.c: 1724:   {;usb_device.c: 1735:    controlTransferState = 2;
  3947  001792  0E02               	movlw	2
  3948  001794  6E26               	movwf	_controlTransferState^0,c	;volatile
  3949  001796                     
  3950                           ; BSR set to: 4
  3951                           ;usb_device.c: 1738:    pBDTEntryEP0OutNext->CNT = 32;
  3952  001796  EE20 F001          	lfsr	2,1
  3953  00179A  5017               	movf	_pBDTEntryEP0OutNext^0,w,c
  3954  00179C  26D9               	addwf	fsr2l,f,c
  3955  00179E  5018               	movf	(_pBDTEntryEP0OutNext+1)^0,w,c
  3956  0017A0  22DA               	addwfc	fsr2h,f,c
  3957  0017A2  0E20               	movlw	32
  3958  0017A4  6EDF               	movwf	indf2,c
  3959  0017A6                     
  3960                           ; BSR set to: 4
  3961                           ;usb_device.c: 1739:    pBDTEntryEP0OutNext->ADR = ((uint16_t)(&SetupPkt));
  3962  0017A6  EE20 F002          	lfsr	2,2
  3963  0017AA  5017               	movf	_pBDTEntryEP0OutNext^0,w,c
  3964  0017AC  26D9               	addwf	fsr2l,f,c
  3965  0017AE  5018               	movf	(_pBDTEntryEP0OutNext+1)^0,w,c
  3966  0017B0  22DA               	addwfc	fsr2h,f,c
  3967  0017B2  0E30               	movlw	48
  3968  0017B4  6EDE               	movwf	postinc2,c
  3969  0017B6  0E04               	movlw	4
  3970  0017B8  6EDD               	movwf	postdec2,c
  3971  0017BA                     
  3972                           ; BSR set to: 4
  3973                           ;usb_device.c: 1740:    pBDTEntryEP0OutNext->STAT.Val = 0x04;
  3974  0017BA  C017  FFD9         	movff	_pBDTEntryEP0OutNext,fsr2l
  3975  0017BE  C018  FFDA         	movff	_pBDTEntryEP0OutNext+1,fsr2h
  3976  0017C2  0E04               	movlw	4
  3977  0017C4  6EDF               	movwf	indf2,c
  3978  0017C6                     
  3979                           ; BSR set to: 4
  3980                           ;usb_device.c: 1741:             pBDTEntryEP0OutNext->STAT.Val |= 0x80;
  3981  0017C6  C017  FFD9         	movff	_pBDTEntryEP0OutNext,fsr2l
  3982  0017CA  C018  FFDA         	movff	_pBDTEntryEP0OutNext+1,fsr2h
  3983  0017CE  0E00               	movlw	0
  3984  0017D0  8EDB               	bsf	plusw2,7,c
  3985  0017D2                     
  3986                           ; BSR set to: 4
  3987                           ;usb_device.c: 1744:             USBStatusStageEnabledFlag2 = 0;
  3988  0017D2  0E00               	movlw	0
  3989  0017D4  6E1E               	movwf	_USBStatusStageEnabledFlag2^0,c	;volatile
  3990  0017D6                     
  3991                           ; BSR set to: 4
  3992                           ;usb_device.c: 1745:             USBStatusStageEnabledFlag1 = 0;
  3993  0017D6  0E00               	movlw	0
  3994  0017D8  6E1F               	movwf	_USBStatusStageEnabledFlag1^0,c	;volatile
  3995  0017DA                     
  3996                           ; BSR set to: 4
  3997                           ;usb_device.c: 1746:    if(USBDeferStatusStagePacket == 0)
  3998  0017DA  5020               	movf	_USBDeferStatusStagePacket^0,w,c	;volatile
  3999  0017DC  A4D8               	btfss	status,2,c
  4000  0017DE  EFF3  F00B         	goto	i2u233_41
  4001  0017E2  EFF5  F00B         	goto	i2u233_40
  4002  0017E6                     i2u233_41:
  4003  0017E6  EFF7  F00B         	goto	i2l321
  4004  0017EA                     i2u233_40:
  4005  0017EA  EFC5  F00B         	goto	i2l3307
  4006  0017EE                     i2l321:
  4007  0017EE  0012               	return		;funcret
  4008  0017F0                     __end_of_USBCtrlEPServiceComplete:
  4009                           	opt callstack 0
  4010                           
  4011 ;; *************** function _USBCtrlEPAllowDataStage *****************
  4012 ;; Defined at:
  4013 ;;		line 1494 in file "usb_device.c"
  4014 ;; Parameters:    Size  Location     Type
  4015 ;;		None
  4016 ;; Auto vars:     Size  Location     Type
  4017 ;;		None
  4018 ;; Return value:  Size  Location     Type
  4019 ;;                  1    wreg      void 
  4020 ;; Registers used:
  4021 ;;		wreg, fsr1l, fsr1h, fsr2l, fsr2h, status,2, status,0, tblptrl, tblptrh, tblptru, cstack
  4022 ;; Tracked objects:
  4023 ;;		On entry : 0/0
  4024 ;;		On exit  : 0/0
  4025 ;;		Unchanged: 0/0
  4026 ;; Data sizes:     COMRAM   BANK0   BANK1   BANK2   BANK3  BANK4h  BANK4l   BANK5   BANK6   BANK7
  4027 ;;      Params:         0       0       0       0       0       0       0       0       0       0
  4028 ;;      Locals:         0       0       0       0       0       0       0       0       0       0
  4029 ;;      Temps:          0       0       0       0       0       0       0       0       0       0
  4030 ;;      Totals:         0       0       0       0       0       0       0       0       0       0
  4031 ;;Total ram usage:        0 bytes
  4032 ;; Hardware stack levels used:    1
  4033 ;; Hardware stack levels required when called:    1
  4034 ;; This function calls:
  4035 ;;		_USBCtrlTrfTxService
  4036 ;; This function is called by:
  4037 ;;		_USBCtrlEPServiceComplete
  4038 ;; This function uses a non-reentrant model
  4039 ;;
  4040                           
  4041                           	psect	text21
  4042  002374                     __ptext21:
  4043                           	opt callstack 0
  4044  002374                     _USBCtrlEPAllowDataStage:
  4045                           	opt callstack 20
  4046  002374                     
  4047                           ;usb_device.c: 1496:     USBDeferINDataStagePackets = 0;
  4048  002374  0E00               	movlw	0
  4049  002376  0100               	movlb	0	; () banked
  4050  002378  6F8C               	movwf	_USBDeferINDataStagePackets& (0+255),b	;volatile
  4051                           
  4052                           ;usb_device.c: 1497:     USBDeferOUTDataStagePackets = 0;
  4053  00237A  0E00               	movlw	0
  4054  00237C  6F8B               	movwf	_USBDeferOUTDataStagePackets& (0+255),b	;volatile
  4055  00237E                     
  4056                           ; BSR set to: 0
  4057                           ;usb_device.c: 1499:     if(controlTransferState == 2)
  4058  00237E  0E02               	movlw	2
  4059  002380  1826               	xorwf	_controlTransferState^0,w,c	;volatile
  4060  002382  A4D8               	btfss	status,2,c
  4061  002384  EFC6  F011         	goto	i2u194_41
  4062  002388  EFC8  F011         	goto	i2u194_40
  4063  00238C                     i2u194_41:
  4064  00238C  EFE8  F011         	goto	i2l3071
  4065  002390                     i2u194_40:
  4066  002390                     
  4067                           ; BSR set to: 0
  4068                           ;usb_device.c: 1500:     {;usb_device.c: 1502:         pBDTEntryEP0OutNext->CNT = 32;
  4069  002390  EE20 F001          	lfsr	2,1
  4070  002394  5017               	movf	_pBDTEntryEP0OutNext^0,w,c
  4071  002396  26D9               	addwf	fsr2l,f,c
  4072  002398  5018               	movf	(_pBDTEntryEP0OutNext+1)^0,w,c
  4073  00239A  22DA               	addwfc	fsr2h,f,c
  4074  00239C  0E20               	movlw	32
  4075  00239E  6EDF               	movwf	indf2,c
  4076                           
  4077                           ;usb_device.c: 1503:         pBDTEntryEP0OutNext->ADR = ((uint16_t)(&CtrlTrfData));
  4078  0023A0  EE20 F002          	lfsr	2,2
  4079  0023A4  5017               	movf	_pBDTEntryEP0OutNext^0,w,c
  4080  0023A6  26D9               	addwf	fsr2l,f,c
  4081  0023A8  5018               	movf	(_pBDTEntryEP0OutNext+1)^0,w,c
  4082  0023AA  22DA               	addwfc	fsr2h,f,c
  4083  0023AC  0E50               	movlw	80
  4084  0023AE  6EDE               	movwf	postinc2,c
  4085  0023B0  0E04               	movlw	4
  4086  0023B2  6EDD               	movwf	postdec2,c
  4087  0023B4                     
  4088                           ; BSR set to: 0
  4089                           ;usb_device.c: 1504:         pBDTEntryEP0OutNext->STAT.Val = 0x40|(0x08 & 0x08);
  4090  0023B4  C017  FFD9         	movff	_pBDTEntryEP0OutNext,fsr2l
  4091  0023B8  C018  FFDA         	movff	_pBDTEntryEP0OutNext+1,fsr2h
  4092  0023BC  0E48               	movlw	72
  4093  0023BE  6EDF               	movwf	indf2,c
  4094  0023C0                     
  4095                           ; BSR set to: 0
  4096                           ;usb_device.c: 1505:         pBDTEntryEP0OutNext->STAT.Val |= 0x80;
  4097  0023C0  C017  FFD9         	movff	_pBDTEntryEP0OutNext,fsr2l
  4098  0023C4  C018  FFDA         	movff	_pBDTEntryEP0OutNext+1,fsr2h
  4099  0023C8  0E00               	movlw	0
  4100  0023CA  8EDB               	bsf	plusw2,7,c
  4101                           
  4102                           ;usb_device.c: 1506:     }
  4103  0023CC  EF10  F012         	goto	i2l303
  4104  0023D0                     i2l3071:
  4105                           
  4106                           ; BSR set to: 0
  4107                           ;usb_device.c: 1508:     {;usb_device.c: 1511:   if(SetupPkt.wLength < inPipes[0].wCount
      +                          .Val)
  4108  0023D0  500D               	movf	(_inPipes+4)^0,w,c	;volatile
  4109  0023D2  0104               	movlb	4	; () banked
  4110  0023D4  5D36               	subwf	54,w,b	;volatile
  4111  0023D6  500E               	movf	(_inPipes+5)^0,w,c	;volatile
  4112  0023D8  5937               	subwfb	55,w,b	;volatile
  4113  0023DA  B0D8               	btfsc	status,0,c
  4114  0023DC  EFF2  F011         	goto	i2u195_41
  4115  0023E0  EFF4  F011         	goto	i2u195_40
  4116  0023E4                     i2u195_41:
  4117  0023E4  EFF8  F011         	goto	i2l3075
  4118  0023E8                     i2u195_40:
  4119  0023E8                     
  4120                           ; BSR set to: 4
  4121                           ;usb_device.c: 1512:   {;usb_device.c: 1513:    inPipes[0].wCount.Val = SetupPkt.wLength
      +                          ;
  4122  0023E8  C436 F00D          	movff	1078,_inPipes+4	;volatile
  4123  0023EC  C437 F00E          	movff	1079,_inPipes+5	;volatile
  4124  0023F0                     i2l3075:
  4125                           
  4126                           ; BSR set to: 4
  4127                           ;usb_device.c: 1515:   USBCtrlTrfTxService();
  4128  0023F0  EC67  F00E         	call	_USBCtrlTrfTxService	;wreg free
  4129  0023F4                     
  4130                           ;usb_device.c: 1520:   pBDTEntryIn[0]->ADR = ((uint16_t)(&CtrlTrfData));
  4131  0023F4  EE20 F002          	lfsr	2,2
  4132  0023F8  500F               	movf	_pBDTEntryIn^0,w,c
  4133  0023FA  26D9               	addwf	fsr2l,f,c
  4134  0023FC  5010               	movf	(_pBDTEntryIn+1)^0,w,c
  4135  0023FE  22DA               	addwfc	fsr2h,f,c
  4136  002400  0E50               	movlw	80
  4137  002402  6EDE               	movwf	postinc2,c
  4138  002404  0E04               	movlw	4
  4139  002406  6EDD               	movwf	postdec2,c
  4140  002408                     
  4141                           ;usb_device.c: 1521:   pBDTEntryIn[0]->STAT.Val = 0x40|(0x08 & 0x08);
  4142  002408  C00F  FFD9         	movff	_pBDTEntryIn,fsr2l
  4143  00240C  C010  FFDA         	movff	_pBDTEntryIn+1,fsr2h
  4144  002410  0E48               	movlw	72
  4145  002412  6EDF               	movwf	indf2,c
  4146  002414                     
  4147                           ;usb_device.c: 1522:         pBDTEntryIn[0]->STAT.Val |= 0x80;
  4148  002414  C00F  FFD9         	movff	_pBDTEntryIn,fsr2l
  4149  002418  C010  FFDA         	movff	_pBDTEntryIn+1,fsr2h
  4150  00241C  0E00               	movlw	0
  4151  00241E  8EDB               	bsf	plusw2,7,c
  4152  002420                     i2l303:
  4153  002420  0012               	return		;funcret
  4154  002422                     __end_of_USBCtrlEPAllowDataStage:
  4155                           	opt callstack 0
  4156                           
  4157 ;; *************** function _USBCheckStdRequest *****************
  4158 ;; Defined at:
  4159 ;;		line 2692 in file "usb_device.c"
  4160 ;; Parameters:    Size  Location     Type
  4161 ;;		None
  4162 ;; Auto vars:     Size  Location     Type
  4163 ;;		None
  4164 ;; Return value:  Size  Location     Type
  4165 ;;                  1    wreg      void 
  4166 ;; Registers used:
  4167 ;;		wreg, fsr1l, fsr1h, fsr2l, fsr2h, status,2, status,0, tblptrl, tblptrh, tblptru, prodl, prodh, cstack
  4168 ;; Tracked objects:
  4169 ;;		On entry : 0/0
  4170 ;;		On exit  : 0/0
  4171 ;;		Unchanged: 0/0
  4172 ;; Data sizes:     COMRAM   BANK0   BANK1   BANK2   BANK3  BANK4h  BANK4l   BANK5   BANK6   BANK7
  4173 ;;      Params:         0       0       0       0       0       0       0       0       0       0
  4174 ;;      Locals:         0       0       0       0       0       0       0       0       0       0
  4175 ;;      Temps:          2       0       0       0       0       0       0       0       0       0
  4176 ;;      Totals:         2       0       0       0       0       0       0       0       0       0
  4177 ;;Total ram usage:        2 bytes
  4178 ;; Hardware stack levels used:    1
  4179 ;; Hardware stack levels required when called:    5
  4180 ;; This function calls:
  4181 ;;		_USBStdFeatureReqHandler
  4182 ;;		_USBStdGetDscHandler
  4183 ;;		_USBStdGetStatusHandler
  4184 ;;		_USBStdSetCfgHandler
  4185 ;;		_USER_USB_CALLBACK_EVENT_HANDLER
  4186 ;; This function is called by:
  4187 ;;		_USBCtrlTrfSetupHandler
  4188 ;; This function uses a non-reentrant model
  4189 ;;
  4190                           
  4191                           	psect	text22
  4192  001BB2                     __ptext22:
  4193                           	opt callstack 0
  4194  001BB2                     _USBCheckStdRequest:
  4195                           	opt callstack 17
  4196  001BB2                     
  4197                           ;usb_device.c: 2694:     if(SetupPkt.RequestType != (0x00>>5)) return;
  4198  001BB2  0104               	movlb	4	; () banked
  4199  001BB4  3930               	swapf	48,w,b	;volatile
  4200  001BB6  32E8               	rrcf	wreg,f,c
  4201  001BB8  0B03               	andlw	3
  4202  001BBA  0900               	iorlw	0
  4203  001BBC  B4D8               	btfsc	status,2,c
  4204  001BBE  EFE3  F00D         	goto	i2u239_41
  4205  001BC2  EFE5  F00D         	goto	i2u239_40
  4206  001BC6                     i2u239_41:
  4207  001BC6  EF2D  F00E         	goto	i2l3407
  4208  001BCA                     i2u239_40:
  4209  001BCA  EF66  F00E         	goto	i2l434
  4210  001BCE                     i2l436:
  4211                           
  4212                           ; BSR set to: 4
  4213                           ;usb_device.c: 2699:             inPipes[0].info.bits.busy = 1;
  4214  001BCE  8E0C               	bsf	(_inPipes+3)^0,7,c	;volatile
  4215  001BD0                     
  4216                           ; BSR set to: 4
  4217                           ;usb_device.c: 2700:             USBDeviceState = ADR_PENDING_STATE;
  4218  001BD0  0E08               	movlw	8
  4219  001BD2  6E28               	movwf	_USBDeviceState^0,c	;volatile
  4220                           
  4221                           ;usb_device.c: 2702:             break;
  4222  001BD4  EF66  F00E         	goto	i2l434
  4223  001BD8                     i2l3377:
  4224                           
  4225                           ; BSR set to: 4
  4226                           ;usb_device.c: 2704:             USBStdGetDscHandler();
  4227  001BD8  EC5A  F009         	call	_USBStdGetDscHandler	;wreg free
  4228                           
  4229                           ;usb_device.c: 2705:             break;
  4230  001BDC  EF66  F00E         	goto	i2l434
  4231  001BE0                     i2l3379:
  4232                           
  4233                           ; BSR set to: 4
  4234                           ;usb_device.c: 2707:             USBStdSetCfgHandler();
  4235  001BE0  ECEB  F010         	call	_USBStdSetCfgHandler	;wreg free
  4236                           
  4237                           ;usb_device.c: 2708:             break;
  4238  001BE4  EF66  F00E         	goto	i2l434
  4239  001BE8                     i2l3381:
  4240                           
  4241                           ; BSR set to: 4
  4242                           ;usb_device.c: 2710:             inPipes[0].pSrc.bRam = (uint8_t*)&USBActiveConfiguratio
      +                          n;
  4243  001BE8  0E2A               	movlw	low _USBActiveConfiguration
  4244  001BEA  6E09               	movwf	_inPipes^0,c	;volatile
  4245  001BEC  0E00               	movlw	high _USBActiveConfiguration
  4246  001BEE  6E0A               	movwf	(_inPipes+1)^0,c	;volatile
  4247  001BF0                     
  4248                           ; BSR set to: 4
  4249                           ;usb_device.c: 2711:             inPipes[0].info.bits.ctrl_trf_mem = 0x01;
  4250  001BF0  800C               	bsf	(_inPipes+3)^0,0,c	;volatile
  4251  001BF2                     
  4252                           ; BSR set to: 4
  4253                           ;usb_device.c: 2712:             inPipes[0].wCount.v[0] = 1;
  4254  001BF2  0E01               	movlw	1
  4255  001BF4  6E0D               	movwf	(_inPipes+4)^0,c	;volatile
  4256  001BF6                     
  4257                           ; BSR set to: 4
  4258                           ;usb_device.c: 2713:             inPipes[0].info.bits.busy = 1;
  4259  001BF6  8E0C               	bsf	(_inPipes+3)^0,7,c	;volatile
  4260                           
  4261                           ;usb_device.c: 2714:             break;
  4262  001BF8  EF66  F00E         	goto	i2l434
  4263  001BFC                     i2l3389:
  4264                           
  4265                           ; BSR set to: 4
  4266                           ;usb_device.c: 2716:             USBStdGetStatusHandler();
  4267  001BFC  EC71  F00F         	call	_USBStdGetStatusHandler	;wreg free
  4268                           
  4269                           ;usb_device.c: 2717:             break;
  4270  001C00  EF66  F00E         	goto	i2l434
  4271  001C04                     i2l3391:
  4272                           
  4273                           ; BSR set to: 4
  4274                           ;usb_device.c: 2720:             USBStdFeatureReqHandler();
  4275  001C04  EC57  F004         	call	_USBStdFeatureReqHandler	;wreg free
  4276                           
  4277                           ;usb_device.c: 2721:             break;
  4278  001C08  EF66  F00E         	goto	i2l434
  4279  001C0C                     i2l3393:
  4280                           
  4281                           ; BSR set to: 4
  4282                           ;usb_device.c: 2723:             inPipes[0].pSrc.bRam = (uint8_t*)&USBAlternateInterface
      +                          [SetupPkt.bIntfID];
  4283  001C0C  0E9D               	movlw	low _USBAlternateInterface
  4284  001C0E  2534               	addwf	52,w,b	;volatile
  4285  001C10  6E09               	movwf	_inPipes^0,c	;volatile
  4286  001C12  6A0A               	clrf	(_inPipes+1)^0,c	;volatile
  4287  001C14  0E00               	movlw	high _USBAlternateInterface
  4288  001C16  220A               	addwfc	(_inPipes+1)^0,f,c	;volatile
  4289  001C18                     
  4290                           ; BSR set to: 4
  4291                           ;usb_device.c: 2724:             inPipes[0].info.bits.ctrl_trf_mem = 0x01;
  4292  001C18  800C               	bsf	(_inPipes+3)^0,0,c	;volatile
  4293  001C1A                     
  4294                           ; BSR set to: 4
  4295                           ;usb_device.c: 2725:             inPipes[0].wCount.v[0] = 1;
  4296  001C1A  0E01               	movlw	1
  4297  001C1C  6E0D               	movwf	(_inPipes+4)^0,c	;volatile
  4298  001C1E                     
  4299                           ; BSR set to: 4
  4300                           ;usb_device.c: 2726:             inPipes[0].info.bits.busy = 1;
  4301  001C1E  8E0C               	bsf	(_inPipes+3)^0,7,c	;volatile
  4302                           
  4303                           ;usb_device.c: 2727:             break;
  4304  001C20  EF66  F00E         	goto	i2l434
  4305  001C24                     i2l445:
  4306                           
  4307                           ; BSR set to: 4
  4308                           ;usb_device.c: 2729:             inPipes[0].info.bits.busy = 1;
  4309  001C24  8E0C               	bsf	(_inPipes+3)^0,7,c	;volatile
  4310  001C26                     
  4311                           ; BSR set to: 4
  4312                           ;usb_device.c: 2730:             USBAlternateInterface[SetupPkt.bIntfID] = SetupPkt.bAlt
      +                          ID;
  4313  001C26  0E9D               	movlw	low _USBAlternateInterface
  4314  001C28  2534               	addwf	52,w,b	;volatile
  4315  001C2A  6ED9               	movwf	fsr2l,c
  4316  001C2C  6ADA               	clrf	fsr2h,c
  4317  001C2E  0E00               	movlw	high _USBAlternateInterface
  4318  001C30  22DA               	addwfc	fsr2h,f,c
  4319  001C32  C432 FFDF          	movff	1074,indf2	;volatile
  4320                           
  4321                           ;usb_device.c: 2731:             break;
  4322  001C36  EF66  F00E         	goto	i2l434
  4323  001C3A                     i2l3403:
  4324                           
  4325                           ; BSR set to: 4
  4326                           ;usb_device.c: 2733:             USER_USB_CALLBACK_EVENT_HANDLER((USB_EVENT)EVENT_SET_DE
      +                          SCRIPTOR,0,0);
  4327  001C3A  0E00               	movlw	0
  4328  001C3C  6E38               	movwf	(USER_USB_CALLBACK_EVENT_HANDLER@event+1)^0,c
  4329  001C3E  0E02               	movlw	2
  4330  001C40  6E37               	movwf	USER_USB_CALLBACK_EVENT_HANDLER@event^0,c
  4331  001C42  0E00               	movlw	0
  4332  001C44  6E39               	movwf	USER_USB_CALLBACK_EVENT_HANDLER@pdata^0,c
  4333  001C46  0E00               	movlw	0
  4334  001C48  6E3A               	movwf	(USER_USB_CALLBACK_EVENT_HANDLER@pdata+1)^0,c
  4335  001C4A  0E00               	movlw	0
  4336  001C4C  6E3C               	movwf	(USER_USB_CALLBACK_EVENT_HANDLER@size+1)^0,c
  4337  001C4E  0E00               	movlw	0
  4338  001C50  6E3B               	movwf	USER_USB_CALLBACK_EVENT_HANDLER@size^0,c
  4339  001C52  ECFE  F012         	call	_USER_USB_CALLBACK_EVENT_HANDLER	;wreg free
  4340                           
  4341                           ;usb_device.c: 2734:             break;
  4342  001C56  EF66  F00E         	goto	i2l434
  4343  001C5A                     i2l3407:
  4344                           
  4345                           ; BSR set to: 4
  4346  001C5A  5131               	movf	49,w,b	;volatile
  4347  001C5C  6E46               	movwf	??_USBCheckStdRequest^0,c
  4348  001C5E  6A47               	clrf	(??_USBCheckStdRequest+1)^0,c
  4349                           
  4350                           ; Switch on 2 bytes has been partitioned into a top level switch of size 1, and 1 sub-sw
      +                          itches
  4351                           ; Switch size 1, requested type "simple"
  4352                           ; Number of cases is 1, Range of values is 0 to 0
  4353                           ; switch strategies available:
  4354                           ; Name         Instructions Cycles
  4355                           ; simple_byte            4     3 (average)
  4356                           ;	Chosen strategy is simple_byte
  4357  001C60  5047               	movf	(??_USBCheckStdRequest+1)^0,w,c
  4358  001C62  0A00               	xorlw	0	; case 0
  4359  001C64  B4D8               	btfsc	status,2,c
  4360  001C66  EF37  F00E         	goto	i2l4767
  4361  001C6A  EF66  F00E         	goto	i2l434
  4362  001C6E                     i2l4767:
  4363                           
  4364                           ; BSR set to: 4
  4365                           ; Switch size 1, requested type "simple"
  4366                           ; Number of cases is 11, Range of values is 0 to 12
  4367                           ; switch strategies available:
  4368                           ; Name         Instructions Cycles
  4369                           ; simple_byte           34    18 (average)
  4370                           ;	Chosen strategy is simple_byte
  4371  001C6E  5046               	movf	??_USBCheckStdRequest^0,w,c
  4372  001C70  0A00               	xorlw	0	; case 0
  4373  001C72  B4D8               	btfsc	status,2,c
  4374  001C74  EFFE  F00D         	goto	i2l3389
  4375  001C78  0A01               	xorlw	1	; case 1
  4376  001C7A  B4D8               	btfsc	status,2,c
  4377  001C7C  EF02  F00E         	goto	i2l3391
  4378  001C80  0A02               	xorlw	2	; case 3
  4379  001C82  B4D8               	btfsc	status,2,c
  4380  001C84  EF02  F00E         	goto	i2l3391
  4381  001C88  0A06               	xorlw	6	; case 5
  4382  001C8A  B4D8               	btfsc	status,2,c
  4383  001C8C  EFE7  F00D         	goto	i2l436
  4384  001C90  0A03               	xorlw	3	; case 6
  4385  001C92  B4D8               	btfsc	status,2,c
  4386  001C94  EFEC  F00D         	goto	i2l3377
  4387  001C98  0A01               	xorlw	1	; case 7
  4388  001C9A  B4D8               	btfsc	status,2,c
  4389  001C9C  EF1D  F00E         	goto	i2l3403
  4390  001CA0  0A0F               	xorlw	15	; case 8
  4391  001CA2  B4D8               	btfsc	status,2,c
  4392  001CA4  EFF4  F00D         	goto	i2l3381
  4393  001CA8  0A01               	xorlw	1	; case 9
  4394  001CAA  B4D8               	btfsc	status,2,c
  4395  001CAC  EFF0  F00D         	goto	i2l3379
  4396  001CB0  0A03               	xorlw	3	; case 10
  4397  001CB2  B4D8               	btfsc	status,2,c
  4398  001CB4  EF06  F00E         	goto	i2l3393
  4399  001CB8  0A01               	xorlw	1	; case 11
  4400  001CBA  B4D8               	btfsc	status,2,c
  4401  001CBC  EF12  F00E         	goto	i2l445
  4402  001CC0  0A07               	xorlw	7	; case 12
  4403  001CC2  B4D8               	btfsc	status,2,c
  4404  001CC4  EF66  F00E         	goto	i2l434
  4405  001CC8  EF66  F00E         	goto	i2l434
  4406  001CCC                     i2l434:
  4407  001CCC  0012               	return		;funcret
  4408  001CCE                     __end_of_USBCheckStdRequest:
  4409                           	opt callstack 0
  4410                           
  4411 ;; *************** function _USBStdSetCfgHandler *****************
  4412 ;; Defined at:
  4413 ;;		line 1974 in file "usb_device.c"
  4414 ;; Parameters:    Size  Location     Type
  4415 ;;		None
  4416 ;; Auto vars:     Size  Location     Type
  4417 ;;  i               1   20[COMRAM] unsigned char 
  4418 ;; Return value:  Size  Location     Type
  4419 ;;                  1    wreg      void 
  4420 ;; Registers used:
  4421 ;;		wreg, fsr2l, fsr2h, status,2, status,0, prodl, prodh, cstack
  4422 ;; Tracked objects:
  4423 ;;		On entry : 0/0
  4424 ;;		On exit  : 0/0
  4425 ;;		Unchanged: 0/0
  4426 ;; Data sizes:     COMRAM   BANK0   BANK1   BANK2   BANK3  BANK4h  BANK4l   BANK5   BANK6   BANK7
  4427 ;;      Params:         0       0       0       0       0       0       0       0       0       0
  4428 ;;      Locals:         1       0       0       0       0       0       0       0       0       0
  4429 ;;      Temps:          0       0       0       0       0       0       0       0       0       0
  4430 ;;      Totals:         1       0       0       0       0       0       0       0       0       0
  4431 ;;Total ram usage:        1 bytes
  4432 ;; Hardware stack levels used:    1
  4433 ;; Hardware stack levels required when called:    4
  4434 ;; This function calls:
  4435 ;;		_USER_USB_CALLBACK_EVENT_HANDLER
  4436 ;;		i2_memset
  4437 ;; This function is called by:
  4438 ;;		_USBCheckStdRequest
  4439 ;; This function uses a non-reentrant model
  4440 ;;
  4441                           
  4442                           	psect	text23
  4443  0021D6                     __ptext23:
  4444                           	opt callstack 0
  4445  0021D6                     _USBStdSetCfgHandler:
  4446                           	opt callstack 17
  4447  0021D6                     
  4448                           ;usb_device.c: 1976:     uint8_t i;;usb_device.c: 1979:     inPipes[0].info.bits.busy = 
      +                          1;
  4449  0021D6  8E0C               	bsf	(_inPipes+3)^0,7,c	;volatile
  4450  0021D8                     
  4451                           ;usb_device.c: 1982:     memset((void*)&UEP1,0x00,(2));;
  4452  0021D8  0E71               	movlw	113
  4453  0021DA  6E2B               	movwf	i2memset@dest^0,c
  4454  0021DC  0E0F               	movlw	15
  4455  0021DE  6E2C               	movwf	(i2memset@dest+1)^0,c
  4456  0021E0  0E00               	movlw	0
  4457  0021E2  6E2E               	movwf	(i2memset@c+1)^0,c
  4458  0021E4  0E00               	movlw	0
  4459  0021E6  6E2D               	movwf	i2memset@c^0,c
  4460  0021E8  0E00               	movlw	0
  4461  0021EA  6E30               	movwf	(i2memset@n+1)^0,c
  4462  0021EC  0E02               	movlw	2
  4463  0021EE  6E2F               	movwf	i2memset@n^0,c
  4464  0021F0  EC9F  F008         	call	i2_memset	;wreg free
  4465                           
  4466                           ;usb_device.c: 1985:     memset((void*)&BDT[0], 0x00, sizeof(BDT));
  4467  0021F4  0E00               	movlw	0
  4468  0021F6  6E2B               	movwf	i2memset@dest^0,c
  4469  0021F8  0E04               	movlw	4
  4470  0021FA  6E2C               	movwf	(i2memset@dest+1)^0,c
  4471  0021FC  0E00               	movlw	0
  4472  0021FE  6E2E               	movwf	(i2memset@c+1)^0,c
  4473  002200  0E00               	movlw	0
  4474  002202  6E2D               	movwf	i2memset@c^0,c
  4475  002204  0E00               	movlw	0
  4476  002206  6E30               	movwf	(i2memset@n+1)^0,c
  4477  002208  0E30               	movlw	48
  4478  00220A  6E2F               	movwf	i2memset@n^0,c
  4479  00220C  EC9F  F008         	call	i2_memset	;wreg free
  4480  002210                     
  4481                           ;usb_device.c: 1988:     UCONbits.PPBRST = 1;
  4482  002210  8C6D               	bsf	109,6,c	;volatile
  4483  002212                     
  4484                           ;usb_device.c: 1993:  for(i = 0; i < (uint8_t)(2 +1u); i++)
  4485  002212  0E00               	movlw	0
  4486  002214  6E3F               	movwf	USBStdSetCfgHandler@i^0,c
  4487  002216                     i2l3095:
  4488                           
  4489                           ;usb_device.c: 1994:  {;usb_device.c: 1995:   ep_data_in[i].Val = 0u;
  4490  002216  0E81               	movlw	low _ep_data_in
  4491  002218  243F               	addwf	USBStdSetCfgHandler@i^0,w,c
  4492  00221A  6ED9               	movwf	fsr2l,c
  4493  00221C  6ADA               	clrf	fsr2h,c
  4494  00221E  0E00               	movlw	high _ep_data_in
  4495  002220  22DA               	addwfc	fsr2h,f,c
  4496  002222  0E00               	movlw	0
  4497  002224  6EDF               	movwf	indf2,c
  4498                           
  4499                           ;usb_device.c: 1996:         ep_data_out[i].Val = 0u;
  4500  002226  0E7E               	movlw	low _ep_data_out
  4501  002228  243F               	addwf	USBStdSetCfgHandler@i^0,w,c
  4502  00222A  6ED9               	movwf	fsr2l,c
  4503  00222C  6ADA               	clrf	fsr2h,c
  4504  00222E  0E00               	movlw	high _ep_data_out
  4505  002230  22DA               	addwfc	fsr2h,f,c
  4506  002232  0E00               	movlw	0
  4507  002234  6EDF               	movwf	indf2,c
  4508  002236                     
  4509                           ;usb_device.c: 1997:  }
  4510  002236  2A3F               	incf	USBStdSetCfgHandler@i^0,f,c
  4511  002238  0E02               	movlw	2
  4512  00223A  643F               	cpfsgt	USBStdSetCfgHandler@i^0,c
  4513  00223C  EF22  F011         	goto	i2u196_41
  4514  002240  EF24  F011         	goto	i2u196_40
  4515  002244                     i2u196_41:
  4516  002244  EF0B  F011         	goto	i2l3095
  4517  002248                     i2u196_40:
  4518  002248                     
  4519                           ;usb_device.c: 2000:     memset((void*)&USBAlternateInterface,0x00,2);
  4520  002248  0E9D               	movlw	low _USBAlternateInterface
  4521  00224A  6E2B               	movwf	i2memset@dest^0,c
  4522  00224C  0E00               	movlw	high _USBAlternateInterface
  4523  00224E  6E2C               	movwf	(i2memset@dest+1)^0,c
  4524  002250  0E00               	movlw	0
  4525  002252  6E2E               	movwf	(i2memset@c+1)^0,c
  4526  002254  0E00               	movlw	0
  4527  002256  6E2D               	movwf	i2memset@c^0,c
  4528  002258  0E00               	movlw	0
  4529  00225A  6E30               	movwf	(i2memset@n+1)^0,c
  4530  00225C  0E02               	movlw	2
  4531  00225E  6E2F               	movwf	i2memset@n^0,c
  4532  002260  EC9F  F008         	call	i2_memset	;wreg free
  4533  002264                     
  4534                           ;usb_device.c: 2003:     UCONbits.PPBRST = 0;
  4535  002264  9C6D               	bcf	109,6,c	;volatile
  4536  002266                     
  4537                           ;usb_device.c: 2005:     pBDTEntryIn[0] = (volatile BDT_ENTRY*)&BDT[2];
  4538  002266  0E08               	movlw	8
  4539  002268  6E0F               	movwf	_pBDTEntryIn^0,c
  4540  00226A  0E04               	movlw	4
  4541  00226C  6E10               	movwf	(_pBDTEntryIn+1)^0,c
  4542  00226E                     
  4543                           ;usb_device.c: 2008:     pBDTEntryEP0OutCurrent = (volatile BDT_ENTRY*)&BDT[0];
  4544  00226E  0E00               	movlw	0
  4545  002270  6E19               	movwf	_pBDTEntryEP0OutCurrent^0,c
  4546  002272  0E04               	movlw	4
  4547  002274  6E1A               	movwf	(_pBDTEntryEP0OutCurrent+1)^0,c
  4548  002276                     
  4549                           ;usb_device.c: 2009:     pBDTEntryEP0OutNext = pBDTEntryEP0OutCurrent;
  4550  002276  C019  F017         	movff	_pBDTEntryEP0OutCurrent,_pBDTEntryEP0OutNext
  4551  00227A  C01A  F018         	movff	_pBDTEntryEP0OutCurrent+1,_pBDTEntryEP0OutNext+1
  4552  00227E                     
  4553                           ;usb_device.c: 2012:     USBActiveConfiguration = SetupPkt.bConfigurationValue;
  4554  00227E  C432 F02A          	movff	1074,_USBActiveConfiguration	;volatile
  4555  002282                     
  4556                           ;usb_device.c: 2015:     if(USBActiveConfiguration == 0)
  4557  002282  502A               	movf	_USBActiveConfiguration^0,w,c	;volatile
  4558  002284  A4D8               	btfss	status,2,c
  4559  002286  EF47  F011         	goto	i2u197_41
  4560  00228A  EF49  F011         	goto	i2u197_40
  4561  00228E                     i2u197_41:
  4562  00228E  EF4D  F011         	goto	i2l3117
  4563  002292                     i2u197_40:
  4564  002292                     
  4565                           ;usb_device.c: 2016:     {;usb_device.c: 2018:         USBDeviceState = ADDRESS_STATE;
  4566  002292  0E10               	movlw	16
  4567  002294  6E28               	movwf	_USBDeviceState^0,c	;volatile
  4568                           
  4569                           ;usb_device.c: 2019:     }
  4570  002296  EF5D  F011         	goto	i2l356
  4571  00229A                     i2l3117:
  4572                           
  4573                           ;usb_device.c: 2021:     {;usb_device.c: 2023:         USER_USB_CALLBACK_EVENT_HANDLER((
      +                          USB_EVENT)EVENT_CONFIGURED,(void*)&USBActiveConfiguration,1);
  4574  00229A  0E00               	movlw	0
  4575  00229C  6E38               	movwf	(USER_USB_CALLBACK_EVENT_HANDLER@event+1)^0,c
  4576  00229E  0E01               	movlw	1
  4577  0022A0  6E37               	movwf	USER_USB_CALLBACK_EVENT_HANDLER@event^0,c
  4578  0022A2  0E2A               	movlw	low _USBActiveConfiguration
  4579  0022A4  6E39               	movwf	USER_USB_CALLBACK_EVENT_HANDLER@pdata^0,c
  4580  0022A6  0E00               	movlw	high _USBActiveConfiguration
  4581  0022A8  6E3A               	movwf	(USER_USB_CALLBACK_EVENT_HANDLER@pdata+1)^0,c
  4582  0022AA  0E00               	movlw	0
  4583  0022AC  6E3C               	movwf	(USER_USB_CALLBACK_EVENT_HANDLER@size+1)^0,c
  4584  0022AE  0E01               	movlw	1
  4585  0022B0  6E3B               	movwf	USER_USB_CALLBACK_EVENT_HANDLER@size^0,c
  4586  0022B2  ECFE  F012         	call	_USER_USB_CALLBACK_EVENT_HANDLER	;wreg free
  4587  0022B6                     
  4588                           ;usb_device.c: 2028:         USBDeviceState = CONFIGURED_STATE;
  4589  0022B6  0E20               	movlw	32
  4590  0022B8  6E28               	movwf	_USBDeviceState^0,c	;volatile
  4591  0022BA                     i2l356:
  4592  0022BA  0012               	return		;funcret
  4593  0022BC                     __end_of_USBStdSetCfgHandler:
  4594                           	opt callstack 0
  4595                           
  4596 ;; *************** function i2_memset *****************
  4597 ;; Defined at:
  4598 ;;		line 4 in file "C:\Program Files (x86)\Microchip\xc8\v2.10\pic\sources\c99\common\memset.c"
  4599 ;; Parameters:    Size  Location     Type
  4600 ;;  dest            2    0[COMRAM] PTR void 
  4601 ;;		 -> USBAlternateInterface(2), BDT(48), UEP1(1), 
  4602 ;;  c               2    2[COMRAM] int 
  4603 ;;  n               2    4[COMRAM] unsigned int 
  4604 ;; Auto vars:     Size  Location     Type
  4605 ;;  memset          2   10[COMRAM] PTR unsigned char 
  4606 ;;		 -> USBAlternateInterface(2), BDT(48), UEP1(1), 
  4607 ;;  memset          2    8[COMRAM] unsigned int 
  4608 ;; Return value:  Size  Location     Type
  4609 ;;                  2    0[COMRAM] PTR void 
  4610 ;; Registers used:
  4611 ;;		wreg, fsr2l, fsr2h, status,2, status,0
  4612 ;; Tracked objects:
  4613 ;;		On entry : 0/0
  4614 ;;		On exit  : 0/0
  4615 ;;		Unchanged: 0/0
  4616 ;; Data sizes:     COMRAM   BANK0   BANK1   BANK2   BANK3  BANK4h  BANK4l   BANK5   BANK6   BANK7
  4617 ;;      Params:         6       0       0       0       0       0       0       0       0       0
  4618 ;;      Locals:         4       0       0       0       0       0       0       0       0       0
  4619 ;;      Temps:          2       0       0       0       0       0       0       0       0       0
  4620 ;;      Totals:        12       0       0       0       0       0       0       0       0       0
  4621 ;;Total ram usage:       12 bytes
  4622 ;; Hardware stack levels used:    1
  4623 ;; This function calls:
  4624 ;;		Nothing
  4625 ;; This function is called by:
  4626 ;;		_USBStdSetCfgHandler
  4627 ;;		i2_USBDeviceInit
  4628 ;; This function uses a non-reentrant model
  4629 ;;
  4630                           
  4631                           	psect	text24
  4632  00113E                     __ptext24:
  4633                           	opt callstack 0
  4634  00113E                     i2_memset:
  4635                           	opt callstack 23
  4636  00113E  C02B  F035         	movff	i2memset@dest,i2memset@s
  4637  001142  C02C  F036         	movff	i2memset@dest+1,i2memset@s+1
  4638  001146  502F               	movf	i2memset@n^0,w,c
  4639  001148  1030               	iorwf	(i2memset@n+1)^0,w,c
  4640  00114A  A4D8               	btfss	status,2,c
  4641  00114C  EFAA  F008         	goto	i2u185_41
  4642  001150  EFAC  F008         	goto	i2u185_40
  4643  001154                     i2u185_41:
  4644  001154  EFAE  F008         	goto	i2l2999
  4645  001158                     i2u185_40:
  4646  001158  EF59  F009         	goto	i2l1305
  4647  00115C                     i2l2999:
  4648  00115C  C035  FFD9         	movff	i2memset@s,fsr2l
  4649  001160  C036  FFDA         	movff	i2memset@s+1,fsr2h
  4650  001164  C02D  FFDF         	movff	i2memset@c,indf2
  4651  001168  502F               	movf	i2memset@n^0,w,c
  4652  00116A  2435               	addwf	i2memset@s^0,w,c
  4653  00116C  6E31               	movwf	??i2_memset^0,c
  4654  00116E  5030               	movf	(i2memset@n+1)^0,w,c
  4655  001170  2036               	addwfc	(i2memset@s+1)^0,w,c
  4656  001172  6E32               	movwf	(??i2_memset+1)^0,c
  4657  001174  0EFF               	movlw	255
  4658  001176  2431               	addwf	??i2_memset^0,w,c
  4659  001178  6ED9               	movwf	fsr2l,c
  4660  00117A  0EFF               	movlw	255
  4661  00117C  2032               	addwfc	(??i2_memset+1)^0,w,c
  4662  00117E  6EDA               	movwf	fsr2h,c
  4663  001180  C02D  FFDF         	movff	i2memset@c,indf2
  4664  001184  5030               	movf	(i2memset@n+1)^0,w,c
  4665  001186  E107               	bnz	i2u186_41
  4666  001188  0E03               	movlw	3
  4667  00118A  5C2F               	subwf	i2memset@n^0,w,c
  4668  00118C  B0D8               	btfsc	status,0,c
  4669  00118E  EFCB  F008         	goto	i2u186_41
  4670  001192  EFCD  F008         	goto	i2u186_40
  4671  001196                     i2u186_41:
  4672  001196  EFCF  F008         	goto	i2l3005
  4673  00119A                     i2u186_40:
  4674  00119A  EF59  F009         	goto	i2l1305
  4675  00119E                     i2l3005:
  4676  00119E  EE20 F001          	lfsr	2,1
  4677  0011A2  5035               	movf	i2memset@s^0,w,c
  4678  0011A4  26D9               	addwf	fsr2l,f,c
  4679  0011A6  5036               	movf	(i2memset@s+1)^0,w,c
  4680  0011A8  22DA               	addwfc	fsr2h,f,c
  4681  0011AA  C02D  FFDF         	movff	i2memset@c,indf2
  4682  0011AE  EE20 F002          	lfsr	2,2
  4683  0011B2  5035               	movf	i2memset@s^0,w,c
  4684  0011B4  26D9               	addwf	fsr2l,f,c
  4685  0011B6  5036               	movf	(i2memset@s+1)^0,w,c
  4686  0011B8  22DA               	addwfc	fsr2h,f,c
  4687  0011BA  C02D  FFDF         	movff	i2memset@c,indf2
  4688  0011BE  502F               	movf	i2memset@n^0,w,c
  4689  0011C0  2435               	addwf	i2memset@s^0,w,c
  4690  0011C2  6E31               	movwf	??i2_memset^0,c
  4691  0011C4  5030               	movf	(i2memset@n+1)^0,w,c
  4692  0011C6  2036               	addwfc	(i2memset@s+1)^0,w,c
  4693  0011C8  6E32               	movwf	(??i2_memset+1)^0,c
  4694  0011CA  0EFE               	movlw	254
  4695  0011CC  2431               	addwf	??i2_memset^0,w,c
  4696  0011CE  6ED9               	movwf	fsr2l,c
  4697  0011D0  0EFF               	movlw	255
  4698  0011D2  2032               	addwfc	(??i2_memset+1)^0,w,c
  4699  0011D4  6EDA               	movwf	fsr2h,c
  4700  0011D6  C02D  FFDF         	movff	i2memset@c,indf2
  4701  0011DA  502F               	movf	i2memset@n^0,w,c
  4702  0011DC  2435               	addwf	i2memset@s^0,w,c
  4703  0011DE  6E31               	movwf	??i2_memset^0,c
  4704  0011E0  5030               	movf	(i2memset@n+1)^0,w,c
  4705  0011E2  2036               	addwfc	(i2memset@s+1)^0,w,c
  4706  0011E4  6E32               	movwf	(??i2_memset+1)^0,c
  4707  0011E6  0EFD               	movlw	253
  4708  0011E8  2431               	addwf	??i2_memset^0,w,c
  4709  0011EA  6ED9               	movwf	fsr2l,c
  4710  0011EC  0EFF               	movlw	255
  4711  0011EE  2032               	addwfc	(??i2_memset+1)^0,w,c
  4712  0011F0  6EDA               	movwf	fsr2h,c
  4713  0011F2  C02D  FFDF         	movff	i2memset@c,indf2
  4714  0011F6  5030               	movf	(i2memset@n+1)^0,w,c
  4715  0011F8  E107               	bnz	i2u187_41
  4716  0011FA  0E07               	movlw	7
  4717  0011FC  5C2F               	subwf	i2memset@n^0,w,c
  4718  0011FE  B0D8               	btfsc	status,0,c
  4719  001200  EF04  F009         	goto	i2u187_41
  4720  001204  EF06  F009         	goto	i2u187_40
  4721  001208                     i2u187_41:
  4722  001208  EF08  F009         	goto	i2l3011
  4723  00120C                     i2u187_40:
  4724  00120C  EF59  F009         	goto	i2l1305
  4725  001210                     i2l3011:
  4726  001210  EE20 F003          	lfsr	2,3
  4727  001214  5035               	movf	i2memset@s^0,w,c
  4728  001216  26D9               	addwf	fsr2l,f,c
  4729  001218  5036               	movf	(i2memset@s+1)^0,w,c
  4730  00121A  22DA               	addwfc	fsr2h,f,c
  4731  00121C  C02D  FFDF         	movff	i2memset@c,indf2
  4732  001220  502F               	movf	i2memset@n^0,w,c
  4733  001222  2435               	addwf	i2memset@s^0,w,c
  4734  001224  6E31               	movwf	??i2_memset^0,c
  4735  001226  5030               	movf	(i2memset@n+1)^0,w,c
  4736  001228  2036               	addwfc	(i2memset@s+1)^0,w,c
  4737  00122A  6E32               	movwf	(??i2_memset+1)^0,c
  4738  00122C  0EFC               	movlw	252
  4739  00122E  2431               	addwf	??i2_memset^0,w,c
  4740  001230  6ED9               	movwf	fsr2l,c
  4741  001232  0EFF               	movlw	255
  4742  001234  2032               	addwfc	(??i2_memset+1)^0,w,c
  4743  001236  6EDA               	movwf	fsr2h,c
  4744  001238  C02D  FFDF         	movff	i2memset@c,indf2
  4745  00123C  5030               	movf	(i2memset@n+1)^0,w,c
  4746  00123E  E107               	bnz	i2u188_41
  4747  001240  0E09               	movlw	9
  4748  001242  5C2F               	subwf	i2memset@n^0,w,c
  4749  001244  B0D8               	btfsc	status,0,c
  4750  001246  EF27  F009         	goto	i2u188_41
  4751  00124A  EF29  F009         	goto	i2u188_40
  4752  00124E                     i2u188_41:
  4753  00124E  EF2B  F009         	goto	i2l3017
  4754  001252                     i2u188_40:
  4755  001252  EF59  F009         	goto	i2l1305
  4756  001256                     i2l3017:
  4757  001256  C035  F031         	movff	i2memset@s,??i2_memset
  4758  00125A  C036  F032         	movff	i2memset@s+1,??i2_memset+1
  4759  00125E  1E31               	comf	??i2_memset^0,f,c
  4760  001260  1E32               	comf	(??i2_memset+1)^0,f,c
  4761  001262  4A31               	infsnz	??i2_memset^0,f,c
  4762  001264  2A32               	incf	(??i2_memset+1)^0,f,c
  4763  001266  0E03               	movlw	3
  4764  001268  1431               	andwf	??i2_memset^0,w,c
  4765  00126A  6E33               	movwf	i2memset@k^0,c
  4766  00126C  6A34               	clrf	(i2memset@k+1)^0,c
  4767  00126E  5033               	movf	i2memset@k^0,w,c
  4768  001270  2635               	addwf	i2memset@s^0,f,c
  4769  001272  5034               	movf	(i2memset@k+1)^0,w,c
  4770  001274  2236               	addwfc	(i2memset@s+1)^0,f,c
  4771  001276  5033               	movf	i2memset@k^0,w,c
  4772  001278  5E2F               	subwf	i2memset@n^0,f,c
  4773  00127A  5034               	movf	(i2memset@k+1)^0,w,c
  4774  00127C  5A30               	subwfb	(i2memset@n+1)^0,f,c
  4775  00127E  0EFC               	movlw	252
  4776  001280  162F               	andwf	i2memset@n^0,f,c
  4777  001282  0EFF               	movlw	255
  4778  001284  1630               	andwf	(i2memset@n+1)^0,f,c
  4779  001286  EF50  F009         	goto	i2l3025
  4780  00128A                     i2l3019:
  4781  00128A  C035  FFD9         	movff	i2memset@s,fsr2l
  4782  00128E  C036  FFDA         	movff	i2memset@s+1,fsr2h
  4783  001292  C02D  FFDF         	movff	i2memset@c,indf2
  4784  001296  062F               	decf	i2memset@n^0,f,c
  4785  001298  A0D8               	btfss	status,0,c
  4786  00129A  0630               	decf	(i2memset@n+1)^0,f,c
  4787  00129C  4A35               	infsnz	i2memset@s^0,f,c
  4788  00129E  2A36               	incf	(i2memset@s+1)^0,f,c
  4789  0012A0                     i2l3025:
  4790  0012A0  502F               	movf	i2memset@n^0,w,c
  4791  0012A2  1030               	iorwf	(i2memset@n+1)^0,w,c
  4792  0012A4  A4D8               	btfss	status,2,c
  4793  0012A6  EF57  F009         	goto	i2u189_41
  4794  0012AA  EF59  F009         	goto	i2u189_40
  4795  0012AE                     i2u189_41:
  4796  0012AE  EF45  F009         	goto	i2l3019
  4797  0012B2                     i2u189_40:
  4798  0012B2                     i2l1305:
  4799  0012B2  0012               	return		;funcret
  4800  0012B4                     __end_ofi2_memset:
  4801                           	opt callstack 0
  4802                           
  4803 ;; *************** function _USBStdGetStatusHandler *****************
  4804 ;; Defined at:
  4805 ;;		line 2135 in file "usb_device.c"
  4806 ;; Parameters:    Size  Location     Type
  4807 ;;		None
  4808 ;; Auto vars:     Size  Location     Type
  4809 ;;  p               2    2[COMRAM] PTR struct __BDT
  4810 ;;		 -> RAM(2047), NULL(0), BDT(48), 
  4811 ;; Return value:  Size  Location     Type
  4812 ;;                  1    wreg      void 
  4813 ;; Registers used:
  4814 ;;		wreg, fsr2l, fsr2h, status,2, status,0, prodl, prodh
  4815 ;; Tracked objects:
  4816 ;;		On entry : 0/0
  4817 ;;		On exit  : 0/0
  4818 ;;		Unchanged: 0/0
  4819 ;; Data sizes:     COMRAM   BANK0   BANK1   BANK2   BANK3  BANK4h  BANK4l   BANK5   BANK6   BANK7
  4820 ;;      Params:         0       0       0       0       0       0       0       0       0       0
  4821 ;;      Locals:         2       0       0       0       0       0       0       0       0       0
  4822 ;;      Temps:          2       0       0       0       0       0       0       0       0       0
  4823 ;;      Totals:         4       0       0       0       0       0       0       0       0       0
  4824 ;;Total ram usage:        4 bytes
  4825 ;; Hardware stack levels used:    1
  4826 ;; This function calls:
  4827 ;;		Nothing
  4828 ;; This function is called by:
  4829 ;;		_USBCheckStdRequest
  4830 ;; This function uses a non-reentrant model
  4831 ;;
  4832                           
  4833                           	psect	text25
  4834  001EE2                     __ptext25:
  4835                           	opt callstack 0
  4836  001EE2                     _USBStdGetStatusHandler:
  4837                           	opt callstack 21
  4838  001EE2                     
  4839                           ;usb_device.c: 2137:     CtrlTrfData[0] = 0;
  4840  001EE2  0E00               	movlw	0
  4841  001EE4  0104               	movlb	4	; () banked
  4842  001EE6  6F50               	movwf	80,b	;volatile
  4843                           
  4844                           ;usb_device.c: 2138:     CtrlTrfData[1] = 0;
  4845  001EE8  0E00               	movlw	0
  4846  001EEA  6F51               	movwf	81,b	;volatile
  4847                           
  4848                           ;usb_device.c: 2140:     switch(SetupPkt.Recipient)
  4849  001EEC  EFC9  F00F         	goto	i2l3179
  4850  001EF0                     i2l374:
  4851                           
  4852                           ; BSR set to: 4
  4853                           ;usb_device.c: 2143:             inPipes[0].info.bits.busy = 1;
  4854  001EF0  8E0C               	bsf	(_inPipes+3)^0,7,c	;volatile
  4855  001EF2                     
  4856                           ; BSR set to: 4
  4857                           ;usb_device.c: 2153:             if(RemoteWakeup == 1)
  4858  001EF2  0425               	decf	_RemoteWakeup^0,w,c	;volatile
  4859  001EF4  A4D8               	btfss	status,2,c
  4860  001EF6  EF7F  F00F         	goto	i2u204_41
  4861  001EFA  EF81  F00F         	goto	i2u204_40
  4862  001EFE                     i2u204_41:
  4863  001EFE  EFE3  F00F         	goto	i2l377
  4864  001F02                     i2u204_40:
  4865  001F02                     
  4866                           ; BSR set to: 4
  4867                           ;usb_device.c: 2154:             {;usb_device.c: 2155:                 CtrlTrfData[0]|=0
      +                          x02;
  4868  001F02  8350               	bsf	80,1,b	;volatile
  4869  001F04  EFE3  F00F         	goto	i2l377
  4870  001F08                     i2l378:
  4871                           
  4872                           ; BSR set to: 4
  4873                           ;usb_device.c: 2159:             inPipes[0].info.bits.busy = 1;
  4874  001F08  8E0C               	bsf	(_inPipes+3)^0,7,c	;volatile
  4875                           
  4876                           ;usb_device.c: 2160:             break;
  4877  001F0A  EFE3  F00F         	goto	i2l377
  4878  001F0E                     i2l379:
  4879                           
  4880                           ; BSR set to: 4
  4881                           ;usb_device.c: 2162:             inPipes[0].info.bits.busy = 1;
  4882  001F0E  8E0C               	bsf	(_inPipes+3)^0,7,c	;volatile
  4883                           
  4884                           ;usb_device.c: 2166:             {;usb_device.c: 2167:                 BDT_ENTRY *p;;usb
      +                          _device.c: 2169:                 if(SetupPkt.EPDir == 0)
  4885  001F10  BF34               	btfsc	52,7,b	;volatile
  4886  001F12  EF8D  F00F         	goto	i2u205_41
  4887  001F16  EF8F  F00F         	goto	i2u205_40
  4888  001F1A                     i2u205_41:
  4889  001F1A  EFA0  F00F         	goto	i2l3169
  4890  001F1E                     i2u205_40:
  4891  001F1E                     
  4892                           ; BSR set to: 4
  4893                           ;usb_device.c: 2170:                 {;usb_device.c: 2171:                     p = (BDT_
      +                          ENTRY*)pBDTEntryOut[SetupPkt.EPNum];
  4894  001F1E  5134               	movf	52,w,b	;volatile
  4895  001F20  0B0F               	andlw	15
  4896  001F22  6E2B               	movwf	??_USBStdGetStatusHandler^0,c
  4897  001F24  502B               	movf	??_USBStdGetStatusHandler^0,w,c
  4898  001F26  0D02               	mullw	2
  4899  001F28  0E6A               	movlw	low _pBDTEntryOut
  4900  001F2A  24F3               	addwf	243,w,c
  4901  001F2C  6ED9               	movwf	fsr2l,c
  4902  001F2E  0E00               	movlw	high _pBDTEntryOut
  4903  001F30  20F4               	addwfc	prodh,w,c
  4904  001F32  6EDA               	movwf	fsr2h,c
  4905  001F34  CFDE F02D          	movff	postinc2,USBStdGetStatusHandler@p
  4906  001F38  CFDD F02E          	movff	postdec2,USBStdGetStatusHandler@p+1
  4907                           
  4908                           ;usb_device.c: 2172:                 }
  4909  001F3C  EFAF  F00F         	goto	i2l3171
  4910  001F40                     i2l3169:
  4911                           
  4912                           ; BSR set to: 4
  4913                           ;usb_device.c: 2174:                 {;usb_device.c: 2175:                     p = (BDT_
      +                          ENTRY*)pBDTEntryIn[SetupPkt.EPNum];
  4914  001F40  5134               	movf	52,w,b	;volatile
  4915  001F42  0B0F               	andlw	15
  4916  001F44  6E2B               	movwf	??_USBStdGetStatusHandler^0,c
  4917  001F46  502B               	movf	??_USBStdGetStatusHandler^0,w,c
  4918  001F48  0D02               	mullw	2
  4919  001F4A  0E0F               	movlw	low _pBDTEntryIn
  4920  001F4C  24F3               	addwf	243,w,c
  4921  001F4E  6ED9               	movwf	fsr2l,c
  4922  001F50  0E00               	movlw	high _pBDTEntryIn
  4923  001F52  20F4               	addwfc	prodh,w,c
  4924  001F54  6EDA               	movwf	fsr2h,c
  4925  001F56  CFDE F02D          	movff	postinc2,USBStdGetStatusHandler@p
  4926  001F5A  CFDD F02E          	movff	postdec2,USBStdGetStatusHandler@p+1
  4927  001F5E                     i2l3171:
  4928                           
  4929                           ; BSR set to: 4
  4930                           ;usb_device.c: 2178:                 if((p->STAT.UOWN == 1) && (p->STAT.BSTALL == 1))
  4931  001F5E  C02D  FFD9         	movff	USBStdGetStatusHandler@p,fsr2l
  4932  001F62  C02E  FFDA         	movff	USBStdGetStatusHandler@p+1,fsr2h
  4933  001F66  AEDF               	btfss	indf2,7,c
  4934  001F68  EFB8  F00F         	goto	i2u206_41
  4935  001F6C  EFBA  F00F         	goto	i2u206_40
  4936  001F70                     i2u206_41:
  4937  001F70  EFE3  F00F         	goto	i2l377
  4938  001F74                     i2u206_40:
  4939  001F74                     
  4940                           ; BSR set to: 4
  4941  001F74  C02D  FFD9         	movff	USBStdGetStatusHandler@p,fsr2l
  4942  001F78  C02E  FFDA         	movff	USBStdGetStatusHandler@p+1,fsr2h
  4943  001F7C  A4DF               	btfss	indf2,2,c
  4944  001F7E  EFC3  F00F         	goto	i2u207_41
  4945  001F82  EFC5  F00F         	goto	i2u207_40
  4946  001F86                     i2u207_41:
  4947  001F86  EFE3  F00F         	goto	i2l377
  4948  001F8A                     i2u207_40:
  4949  001F8A                     
  4950                           ; BSR set to: 4
  4951                           ;usb_device.c: 2179:                     CtrlTrfData[0]=0x01;
  4952  001F8A  0E01               	movlw	1
  4953  001F8C  6F50               	movwf	80,b	;volatile
  4954  001F8E  EFE3  F00F         	goto	i2l377
  4955  001F92                     i2l3179:
  4956                           
  4957                           ; BSR set to: 4
  4958  001F92  5130               	movf	48,w,b	;volatile
  4959  001F94  0B1F               	andlw	31
  4960  001F96  6E2B               	movwf	??_USBStdGetStatusHandler^0,c
  4961  001F98  6A2C               	clrf	(??_USBStdGetStatusHandler+1)^0,c
  4962                           
  4963                           ; Switch on 2 bytes has been partitioned into a top level switch of size 1, and 1 sub-sw
      +                          itches
  4964                           ; Switch size 1, requested type "simple"
  4965                           ; Number of cases is 1, Range of values is 0 to 0
  4966                           ; switch strategies available:
  4967                           ; Name         Instructions Cycles
  4968                           ; simple_byte            4     3 (average)
  4969                           ;	Chosen strategy is simple_byte
  4970  001F9A  502C               	movf	(??_USBStdGetStatusHandler+1)^0,w,c
  4971  001F9C  0A00               	xorlw	0	; case 0
  4972  001F9E  B4D8               	btfsc	status,2,c
  4973  001FA0  EFD4  F00F         	goto	i2l4769
  4974  001FA4  EFE3  F00F         	goto	i2l377
  4975  001FA8                     i2l4769:
  4976                           
  4977                           ; BSR set to: 4
  4978                           ; Switch size 1, requested type "simple"
  4979                           ; Number of cases is 3, Range of values is 0 to 2
  4980                           ; switch strategies available:
  4981                           ; Name         Instructions Cycles
  4982                           ; simple_byte           10     6 (average)
  4983                           ;	Chosen strategy is simple_byte
  4984  001FA8  502B               	movf	??_USBStdGetStatusHandler^0,w,c
  4985  001FAA  0A00               	xorlw	0	; case 0
  4986  001FAC  B4D8               	btfsc	status,2,c
  4987  001FAE  EF78  F00F         	goto	i2l374
  4988  001FB2  0A01               	xorlw	1	; case 1
  4989  001FB4  B4D8               	btfsc	status,2,c
  4990  001FB6  EF84  F00F         	goto	i2l378
  4991  001FBA  0A03               	xorlw	3	; case 2
  4992  001FBC  B4D8               	btfsc	status,2,c
  4993  001FBE  EF87  F00F         	goto	i2l379
  4994  001FC2  EFE3  F00F         	goto	i2l377
  4995  001FC6                     i2l377:
  4996                           
  4997                           ; BSR set to: 4
  4998                           ;usb_device.c: 2184:     if(inPipes[0].info.bits.busy == 1)
  4999  001FC6  AE0C               	btfss	(_inPipes+3)^0,7,c	;volatile
  5000  001FC8  EFE8  F00F         	goto	i2u208_41
  5001  001FCC  EFEA  F00F         	goto	i2u208_40
  5002  001FD0                     i2u208_41:
  5003  001FD0  EFF1  F00F         	goto	i2l384
  5004  001FD4                     i2u208_40:
  5005  001FD4                     
  5006                           ; BSR set to: 4
  5007                           ;usb_device.c: 2185:     {;usb_device.c: 2186:         inPipes[0].pSrc.bRam = (uint8_t*)
      +                          &CtrlTrfData;
  5008  001FD4  0E50               	movlw	80
  5009  001FD6  6E09               	movwf	_inPipes^0,c	;volatile
  5010  001FD8  0E04               	movlw	4
  5011  001FDA  6E0A               	movwf	(_inPipes+1)^0,c	;volatile
  5012  001FDC                     
  5013                           ; BSR set to: 4
  5014                           ;usb_device.c: 2187:         inPipes[0].info.bits.ctrl_trf_mem = 0x01;
  5015  001FDC  800C               	bsf	(_inPipes+3)^0,0,c	;volatile
  5016  001FDE                     
  5017                           ; BSR set to: 4
  5018                           ;usb_device.c: 2188:         inPipes[0].wCount.v[0] = 2;
  5019  001FDE  0E02               	movlw	2
  5020  001FE0  6E0D               	movwf	(_inPipes+4)^0,c	;volatile
  5021  001FE2                     i2l384:
  5022                           
  5023                           ; BSR set to: 4
  5024  001FE2  0012               	return		;funcret
  5025  001FE4                     __end_of_USBStdGetStatusHandler:
  5026                           	opt callstack 0
  5027                           
  5028 ;; *************** function _USBStdGetDscHandler *****************
  5029 ;; Defined at:
  5030 ;;		line 2049 in file "usb_device.c"
  5031 ;; Parameters:    Size  Location     Type
  5032 ;;		None
  5033 ;; Auto vars:     Size  Location     Type
  5034 ;;		None
  5035 ;; Return value:  Size  Location     Type
  5036 ;;                  1    wreg      void 
  5037 ;; Registers used:
  5038 ;;		wreg, fsr1l, fsr1h, status,2, status,0, tblptrl, tblptrh, tblptru, prodl, prodh
  5039 ;; Tracked objects:
  5040 ;;		On entry : 0/0
  5041 ;;		On exit  : 0/0
  5042 ;;		Unchanged: 0/0
  5043 ;; Data sizes:     COMRAM   BANK0   BANK1   BANK2   BANK3  BANK4h  BANK4l   BANK5   BANK6   BANK7
  5044 ;;      Params:         0       0       0       0       0       0       0       0       0       0
  5045 ;;      Locals:         0       0       0       0       0       0       0       0       0       0
  5046 ;;      Temps:          2       0       0       0       0       0       0       0       0       0
  5047 ;;      Totals:         2       0       0       0       0       0       0       0       0       0
  5048 ;;Total ram usage:        2 bytes
  5049 ;; Hardware stack levels used:    1
  5050 ;; This function calls:
  5051 ;;		Nothing
  5052 ;; This function is called by:
  5053 ;;		_USBCheckStdRequest
  5054 ;; This function uses a non-reentrant model
  5055 ;;
  5056                           
  5057                           	psect	text26
  5058  0012B4                     __ptext26:
  5059                           	opt callstack 0
  5060  0012B4                     _USBStdGetDscHandler:
  5061                           	opt callstack 21
  5062  0012B4                     
  5063                           ;usb_device.c: 2051:     if(SetupPkt.bmRequestType == 0x80)
  5064  0012B4  0E80               	movlw	128
  5065  0012B6  0104               	movlb	4	; () banked
  5066  0012B8  1930               	xorwf	48,w,b	;volatile
  5067  0012BA  A4D8               	btfss	status,2,c
  5068  0012BC  EF62  F009         	goto	i2u198_41
  5069  0012C0  EF64  F009         	goto	i2u198_40
  5070  0012C4                     i2u198_41:
  5071  0012C4  EF09  F00A         	goto	i2l370
  5072  0012C8                     i2u198_40:
  5073  0012C8                     
  5074                           ; BSR set to: 4
  5075                           ;usb_device.c: 2052:     {;usb_device.c: 2053:         inPipes[0].info.Val = 0x00 | 0x80
      +                           | 0x40;
  5076  0012C8  0EC0               	movlw	192
  5077  0012CA  6E0C               	movwf	(_inPipes+3)^0,c	;volatile
  5078                           
  5079                           ;usb_device.c: 2055:         switch(SetupPkt.bDescriptorType)
  5080  0012CC  EFF0  F009         	goto	i2l3151
  5081  0012D0                     i2l3125:
  5082                           
  5083                           ; BSR set to: 4
  5084                           ;usb_device.c: 2061:                     inPipes[0].pSrc.bRom = (const uint8_t*)&device_
      +                          dsc;
  5085  0012D0  0E92               	movlw	low _device_dsc
  5086  0012D2  6E09               	movwf	_inPipes^0,c	;volatile
  5087  0012D4  0E08               	movlw	high _device_dsc
  5088  0012D6  6E0A               	movwf	(_inPipes+1)^0,c	;volatile
  5089  0012D8                     
  5090                           ; BSR set to: 4
  5091                           ;usb_device.c: 2063:                 inPipes[0].wCount.Val = sizeof(device_dsc);
  5092  0012D8  0E00               	movlw	0
  5093  0012DA  6E0E               	movwf	(_inPipes+5)^0,c	;volatile
  5094  0012DC  0E12               	movlw	18
  5095  0012DE  6E0D               	movwf	(_inPipes+4)^0,c	;volatile
  5096                           
  5097                           ;usb_device.c: 2064:                 break;
  5098  0012E0  EF09  F00A         	goto	i2l370
  5099  0012E4                     i2l3129:
  5100                           
  5101                           ; BSR set to: 4
  5102                           ;usb_device.c: 2069:                 if(SetupPkt.bDscIndex < 1)
  5103  0012E4  5132               	movf	50,w,b	;volatile
  5104  0012E6  A4D8               	btfss	status,2,c
  5105  0012E8  EF78  F009         	goto	i2u199_41
  5106  0012EC  EF7A  F009         	goto	i2u199_40
  5107  0012F0                     i2u199_41:
  5108  0012F0  EFB8  F009         	goto	i2l3137
  5109  0012F4                     i2u199_40:
  5110  0012F4                     
  5111                           ; BSR set to: 4
  5112                           ;usb_device.c: 2070:                 {;usb_device.c: 2074:                         inPip
      +                          es[0].pSrc.bRom = *(USB_CD_Ptr+SetupPkt.bDscIndex);
  5113  0012F4  5132               	movf	50,w,b	;volatile
  5114  0012F6  0D02               	mullw	2
  5115  0012F8  0E07               	movlw	low _USB_CD_Ptr
  5116  0012FA  24F3               	addwf	243,w,c
  5117  0012FC  6EF6               	movwf	tblptrl,c
  5118  0012FE  0E08               	movlw	high _USB_CD_Ptr
  5119  001300  20F4               	addwfc	244,w,c
  5120  001302  6EF7               	movwf	tblptrh,c
  5121  001304                     	if	0	;There are less than 3 active tblptr bytes
  5122  001304                     	endif
  5123  001304  0009               	tblrd		*+
  5124  001306  CFF5 F009          	movff	tablat,_inPipes	;volatile
  5125  00130A  000A               	tblrd		*-
  5126  00130C  CFF5 F00A          	movff	tablat,_inPipes+1	;volatile
  5127  001310                     
  5128                           ; BSR set to: 4
  5129                           ;usb_device.c: 2080:                     inPipes[0].wCount.byte.LB = *(inPipes[0].pSrc.b
      +                          Rom+2);
  5130  001310  0E02               	movlw	2
  5131  001312  2409               	addwf	_inPipes^0,w,c	;volatile
  5132  001314  6E2B               	movwf	??_USBStdGetDscHandler^0,c
  5133  001316  0E00               	movlw	0
  5134  001318  200A               	addwfc	(_inPipes+1)^0,w,c	;volatile
  5135  00131A  6E2C               	movwf	(??_USBStdGetDscHandler+1)^0,c
  5136  00131C  C02B  FFF6         	movff	??_USBStdGetDscHandler,tblptrl
  5137  001320  C02C  FFF7         	movff	??_USBStdGetDscHandler+1,tblptrh
  5138  001324  6AF8               	clrf	tblptru,c
  5139  001326  0E07               	movlw	(high __ramtop+-1)
  5140  001328  64F7               	cpfsgt	tblptrh,c
  5141  00132A  D003               	bra	i2u200_47
  5142  00132C  0008               	tblrd		*
  5143  00132E  50F5               	movf	tablat,w,c
  5144  001330  D005               	bra	i2u200_40
  5145  001332                     i2u200_47:
  5146  001332  CFF6 FFE1          	movff	tblptrl,fsr1l
  5147  001336  CFF7 FFE2          	movff	tblptrh,fsr1h
  5148  00133A  50E7               	movf	indf1,w,c
  5149  00133C                     i2u200_40:
  5150  00133C  6E0D               	movwf	(_inPipes+4)^0,c	;volatile
  5151  00133E                     
  5152                           ;usb_device.c: 2081:                     inPipes[0].wCount.byte.HB = *(inPipes[0].pSrc.b
      +                          Rom+3);
  5153  00133E  0E03               	movlw	3
  5154  001340  2409               	addwf	_inPipes^0,w,c	;volatile
  5155  001342  6E2B               	movwf	??_USBStdGetDscHandler^0,c
  5156  001344  0E00               	movlw	0
  5157  001346  200A               	addwfc	(_inPipes+1)^0,w,c	;volatile
  5158  001348  6E2C               	movwf	(??_USBStdGetDscHandler+1)^0,c
  5159  00134A  C02B  FFF6         	movff	??_USBStdGetDscHandler,tblptrl
  5160  00134E  C02C  FFF7         	movff	??_USBStdGetDscHandler+1,tblptrh
  5161  001352  6AF8               	clrf	tblptru,c
  5162  001354  0E07               	movlw	(high __ramtop+-1)
  5163  001356  64F7               	cpfsgt	tblptrh,c
  5164  001358  D003               	bra	i2u201_47
  5165  00135A  0008               	tblrd		*
  5166  00135C  50F5               	movf	tablat,w,c
  5167  00135E  D005               	bra	i2u201_40
  5168  001360                     i2u201_47:
  5169  001360  CFF6 FFE1          	movff	tblptrl,fsr1l
  5170  001364  CFF7 FFE2          	movff	tblptrh,fsr1h
  5171  001368  50E7               	movf	indf1,w,c
  5172  00136A                     i2u201_40:
  5173  00136A  6E0E               	movwf	(_inPipes+5)^0,c	;volatile
  5174                           
  5175                           ;usb_device.c: 2082:                 }
  5176  00136C  EF09  F00A         	goto	i2l370
  5177  001370                     i2l3137:
  5178                           
  5179                           ; BSR set to: 4
  5180                           ;usb_device.c: 2084:     {;usb_device.c: 2085:      inPipes[0].info.Val = 0;
  5181  001370  0E00               	movlw	0
  5182  001372  6E0C               	movwf	(_inPipes+3)^0,c	;volatile
  5183  001374  EF09  F00A         	goto	i2l370
  5184  001378                     i2l3139:
  5185                           
  5186                           ; BSR set to: 4
  5187                           ;usb_device.c: 2092:                 if(SetupPkt.bDscIndex<3)
  5188  001378  0E03               	movlw	3
  5189  00137A  6132               	cpfslt	50,b	;volatile
  5190  00137C  EFC2  F009         	goto	i2u202_41
  5191  001380  EFC4  F009         	goto	i2u202_40
  5192  001384                     i2u202_41:
  5193  001384  EFE8  F009         	goto	i2l3145
  5194  001388                     i2u202_40:
  5195  001388                     
  5196                           ; BSR set to: 4
  5197                           ;usb_device.c: 2093:                 {;usb_device.c: 2095:                     inPipes[0
      +                          ].pSrc.bRom = *(USB_SD_Ptr+SetupPkt.bDscIndex);
  5198  001388  5132               	movf	50,w,b	;volatile
  5199  00138A  0D02               	mullw	2
  5200  00138C  0E01               	movlw	low _USB_SD_Ptr
  5201  00138E  24F3               	addwf	243,w,c
  5202  001390  6EF6               	movwf	tblptrl,c
  5203  001392  0E08               	movlw	high _USB_SD_Ptr
  5204  001394  20F4               	addwfc	244,w,c
  5205  001396  6EF7               	movwf	tblptrh,c
  5206  001398                     	if	0	;There are less than 3 active tblptr bytes
  5207  001398                     	endif
  5208  001398  0009               	tblrd		*+
  5209  00139A  CFF5 F009          	movff	tablat,_inPipes	;volatile
  5210  00139E  000A               	tblrd		*-
  5211  0013A0  CFF5 F00A          	movff	tablat,_inPipes+1	;volatile
  5212  0013A4                     
  5213                           ; BSR set to: 4
  5214                           ;usb_device.c: 2097:                     inPipes[0].wCount.Val = *inPipes[0].pSrc.bRom;
  5215  0013A4  C009  FFF6         	movff	_inPipes,tblptrl	;volatile
  5216  0013A8  C00A  FFF7         	movff	_inPipes+1,tblptrh	;volatile
  5217  0013AC  6AF8               	clrf	tblptru,c
  5218  0013AE  0E07               	movlw	(high __ramtop+-1)
  5219  0013B0  64F7               	cpfsgt	tblptrh,c
  5220  0013B2  D003               	bra	i2u203_47
  5221  0013B4  0008               	tblrd		*
  5222  0013B6  50F5               	movf	tablat,w,c
  5223  0013B8  D005               	bra	i2u203_40
  5224  0013BA                     i2u203_47:
  5225  0013BA  CFF6 FFE1          	movff	tblptrl,fsr1l
  5226  0013BE  CFF7 FFE2          	movff	tblptrh,fsr1h
  5227  0013C2  50E7               	movf	indf1,w,c
  5228  0013C4                     i2u203_40:
  5229  0013C4  6E2B               	movwf	??_USBStdGetDscHandler^0,c
  5230  0013C6  502B               	movf	??_USBStdGetDscHandler^0,w,c
  5231  0013C8  6E0D               	movwf	(_inPipes+4)^0,c	;volatile
  5232  0013CA  6A0E               	clrf	(_inPipes+5)^0,c	;volatile
  5233                           
  5234                           ;usb_device.c: 2098:                 }
  5235  0013CC  EF09  F00A         	goto	i2l370
  5236  0013D0                     i2l3145:
  5237                           
  5238                           ; BSR set to: 4
  5239                           ;usb_device.c: 2109:                 {;usb_device.c: 2110:                     inPipes[0
      +                          ].info.Val = 0;
  5240  0013D0  0E00               	movlw	0
  5241  0013D2  6E0C               	movwf	(_inPipes+3)^0,c	;volatile
  5242  0013D4  EF09  F00A         	goto	i2l370
  5243  0013D8                     i2l3147:
  5244                           
  5245                           ; BSR set to: 4
  5246                           ;usb_device.c: 2114:                 inPipes[0].info.Val = 0;
  5247  0013D8  0E00               	movlw	0
  5248  0013DA  6E0C               	movwf	(_inPipes+3)^0,c	;volatile
  5249                           
  5250                           ;usb_device.c: 2115:                 break;
  5251  0013DC  EF09  F00A         	goto	i2l370
  5252  0013E0                     i2l3151:
  5253                           
  5254                           ; BSR set to: 4
  5255  0013E0  5133               	movf	51,w,b	;volatile
  5256  0013E2  6E2B               	movwf	??_USBStdGetDscHandler^0,c
  5257  0013E4  6A2C               	clrf	(??_USBStdGetDscHandler+1)^0,c
  5258                           
  5259                           ; Switch on 2 bytes has been partitioned into a top level switch of size 1, and 1 sub-sw
      +                          itches
  5260                           ; Switch size 1, requested type "simple"
  5261                           ; Number of cases is 1, Range of values is 0 to 0
  5262                           ; switch strategies available:
  5263                           ; Name         Instructions Cycles
  5264                           ; simple_byte            4     3 (average)
  5265                           ;	Chosen strategy is simple_byte
  5266  0013E6  502C               	movf	(??_USBStdGetDscHandler+1)^0,w,c
  5267  0013E8  0A00               	xorlw	0	; case 0
  5268  0013EA  B4D8               	btfsc	status,2,c
  5269  0013EC  EFFA  F009         	goto	i2l4771
  5270  0013F0  EFEC  F009         	goto	i2l3147
  5271  0013F4                     i2l4771:
  5272                           
  5273                           ; BSR set to: 4
  5274                           ; Switch size 1, requested type "simple"
  5275                           ; Number of cases is 3, Range of values is 1 to 3
  5276                           ; switch strategies available:
  5277                           ; Name         Instructions Cycles
  5278                           ; simple_byte           10     6 (average)
  5279                           ;	Chosen strategy is simple_byte
  5280  0013F4  502B               	movf	??_USBStdGetDscHandler^0,w,c
  5281  0013F6  0A01               	xorlw	1	; case 1
  5282  0013F8  B4D8               	btfsc	status,2,c
  5283  0013FA  EF68  F009         	goto	i2l3125
  5284  0013FE  0A03               	xorlw	3	; case 2
  5285  001400  B4D8               	btfsc	status,2,c
  5286  001402  EF72  F009         	goto	i2l3129
  5287  001406  0A01               	xorlw	1	; case 3
  5288  001408  B4D8               	btfsc	status,2,c
  5289  00140A  EFBC  F009         	goto	i2l3139
  5290  00140E  EFEC  F009         	goto	i2l3147
  5291  001412                     i2l370:
  5292  001412  0012               	return		;funcret
  5293  001414                     __end_of_USBStdGetDscHandler:
  5294                           	opt callstack 0
  5295                           
  5296 ;; *************** function _USBStdFeatureReqHandler *****************
  5297 ;; Defined at:
  5298 ;;		line 2760 in file "usb_device.c"
  5299 ;; Parameters:    Size  Location     Type
  5300 ;;		None
  5301 ;; Auto vars:     Size  Location     Type
  5302 ;;  p               2   25[COMRAM] PTR struct __BDT
  5303 ;;		 -> RAM(2047), NULL(0), BDT(48), 
  5304 ;;  pUEP            2   22[COMRAM] PTR unsigned char 
  5305 ;;		 -> UEP0(1), 
  5306 ;;  current_ep_d    1   24[COMRAM] struct .
  5307 ;; Return value:  Size  Location     Type
  5308 ;;                  1    wreg      void 
  5309 ;; Registers used:
  5310 ;;		wreg, fsr2l, fsr2h, status,2, status,0, prodl, prodh, cstack
  5311 ;; Tracked objects:
  5312 ;;		On entry : 0/0
  5313 ;;		On exit  : 0/0
  5314 ;;		Unchanged: 0/0
  5315 ;; Data sizes:     COMRAM   BANK0   BANK1   BANK2   BANK3  BANK4h  BANK4l   BANK5   BANK6   BANK7
  5316 ;;      Params:         0       0       0       0       0       0       0       0       0       0
  5317 ;;      Locals:         5       0       0       0       0       0       0       0       0       0
  5318 ;;      Temps:          2       0       0       0       0       0       0       0       0       0
  5319 ;;      Totals:         7       0       0       0       0       0       0       0       0       0
  5320 ;;Total ram usage:        7 bytes
  5321 ;; Hardware stack levels used:    1
  5322 ;; Hardware stack levels required when called:    4
  5323 ;; This function calls:
  5324 ;;		_USER_USB_CALLBACK_EVENT_HANDLER
  5325 ;; This function is called by:
  5326 ;;		_USBCheckStdRequest
  5327 ;; This function uses a non-reentrant model
  5328 ;;
  5329                           
  5330                           	psect	text27
  5331  0008AE                     __ptext27:
  5332                           	opt callstack 0
  5333  0008AE                     _USBStdFeatureReqHandler:
  5334                           	opt callstack 17
  5335  0008AE                     
  5336                           ;usb_device.c: 2762:     BDT_ENTRY *p;;usb_device.c: 2763:     EP_STATUS current_ep_data
      +                          ;;usb_device.c: 2767:         unsigned char* pUEP;;usb_device.c: 2805:     if((SetupPkt.
      +                          bFeature == 1)&&
  5337  0008AE  0104               	movlb	4	; () banked
  5338  0008B0  0532               	decf	50,w,b	;volatile
  5339  0008B2  A4D8               	btfss	status,2,c
  5340  0008B4  EF5E  F004         	goto	i2u209_41
  5341  0008B8  EF60  F004         	goto	i2u209_40
  5342  0008BC                     i2u209_41:
  5343  0008BC  EF7A  F004         	goto	i2l451
  5344  0008C0                     i2u209_40:
  5345  0008C0                     
  5346                           ; BSR set to: 4
  5347  0008C0  5130               	movf	48,w,b	;volatile
  5348  0008C2  0B1F               	andlw	31
  5349  0008C4  0900               	iorlw	0
  5350  0008C6  A4D8               	btfss	status,2,c
  5351  0008C8  EF68  F004         	goto	i2u210_41
  5352  0008CC  EF6A  F004         	goto	i2u210_40
  5353  0008D0                     i2u210_41:
  5354  0008D0  EF7A  F004         	goto	i2l451
  5355  0008D4                     i2u210_40:
  5356  0008D4                     
  5357                           ; BSR set to: 4
  5358                           ;usb_device.c: 2807:     {;usb_device.c: 2808:         inPipes[0].info.bits.busy = 1;
  5359  0008D4  8E0C               	bsf	(_inPipes+3)^0,7,c	;volatile
  5360  0008D6                     
  5361                           ; BSR set to: 4
  5362                           ;usb_device.c: 2809:         if(SetupPkt.bRequest == 3)
  5363  0008D6  0E03               	movlw	3
  5364  0008D8  1931               	xorwf	49,w,b	;volatile
  5365  0008DA  A4D8               	btfss	status,2,c
  5366  0008DC  EF72  F004         	goto	i2u211_41
  5367  0008E0  EF74  F004         	goto	i2u211_40
  5368  0008E4                     i2u211_41:
  5369  0008E4  EF78  F004         	goto	i2l3203
  5370  0008E8                     i2u211_40:
  5371  0008E8                     
  5372                           ; BSR set to: 4
  5373                           ;usb_device.c: 2810:             RemoteWakeup = 1;
  5374  0008E8  0E01               	movlw	1
  5375  0008EA  6E25               	movwf	_RemoteWakeup^0,c	;volatile
  5376  0008EC  EF7A  F004         	goto	i2l451
  5377  0008F0                     i2l3203:
  5378                           
  5379                           ; BSR set to: 4
  5380                           ;usb_device.c: 2812:             RemoteWakeup = 0;
  5381  0008F0  0E00               	movlw	0
  5382  0008F2  6E25               	movwf	_RemoteWakeup^0,c	;volatile
  5383  0008F4                     i2l451:
  5384                           
  5385                           ; BSR set to: 4
  5386                           ;usb_device.c: 2816:     if((SetupPkt.bFeature == 0)&&
  5387  0008F4  5132               	movf	50,w,b	;volatile
  5388  0008F6  A4D8               	btfss	status,2,c
  5389  0008F8  EF80  F004         	goto	i2u212_41
  5390  0008FC  EF82  F004         	goto	i2u212_40
  5391  000900                     i2u212_41:
  5392  000900  EF00  F006         	goto	i2l474
  5393  000904                     i2u212_40:
  5394  000904                     
  5395                           ; BSR set to: 4
  5396  000904  5130               	movf	48,w,b	;volatile
  5397  000906  0B1F               	andlw	31
  5398  000908  0A02               	xorlw	2
  5399  00090A  A4D8               	btfss	status,2,c
  5400  00090C  EF8A  F004         	goto	i2u213_41
  5401  000910  EF8C  F004         	goto	i2u213_40
  5402  000914                     i2u213_41:
  5403  000914  EF00  F006         	goto	i2l474
  5404  000918                     i2u213_40:
  5405  000918                     
  5406                           ; BSR set to: 4
  5407  000918  5134               	movf	52,w,b	;volatile
  5408  00091A  0B0F               	andlw	15
  5409  00091C  0900               	iorlw	0
  5410  00091E  B4D8               	btfsc	status,2,c
  5411  000920  EF94  F004         	goto	i2u214_41
  5412  000924  EF96  F004         	goto	i2u214_40
  5413  000928                     i2u214_41:
  5414  000928  EF00  F006         	goto	i2l474
  5415  00092C                     i2u214_40:
  5416  00092C                     
  5417                           ; BSR set to: 4
  5418  00092C  5134               	movf	52,w,b	;volatile
  5419  00092E  0B0F               	andlw	15
  5420  000930  6E3F               	movwf	??_USBStdFeatureReqHandler^0,c
  5421  000932  0E03               	movlw	3
  5422  000934  603F               	cpfslt	??_USBStdFeatureReqHandler^0,c
  5423  000936  EF9F  F004         	goto	i2u215_41
  5424  00093A  EFA1  F004         	goto	i2u215_40
  5425  00093E                     i2u215_41:
  5426  00093E  EF00  F006         	goto	i2l474
  5427  000942                     i2u215_40:
  5428  000942                     
  5429                           ; BSR set to: 4
  5430  000942  0E20               	movlw	32
  5431  000944  1828               	xorwf	_USBDeviceState^0,w,c	;volatile
  5432  000946  A4D8               	btfss	status,2,c
  5433  000948  EFA8  F004         	goto	i2u216_41
  5434  00094C  EFAA  F004         	goto	i2u216_40
  5435  000950                     i2u216_41:
  5436  000950  EF00  F006         	goto	i2l474
  5437  000954                     i2u216_40:
  5438  000954                     
  5439                           ; BSR set to: 4
  5440                           ;usb_device.c: 2820:     {;usb_device.c: 2823:   inPipes[0].info.bits.busy = 1;
  5441  000954  8E0C               	bsf	(_inPipes+3)^0,7,c	;volatile
  5442                           
  5443                           ;usb_device.c: 2826:         if(SetupPkt.EPDir == 0)
  5444  000956  BF34               	btfsc	52,7,b	;volatile
  5445  000958  EFB0  F004         	goto	i2u217_41
  5446  00095C  EFB2  F004         	goto	i2u217_40
  5447  000960                     i2u217_41:
  5448  000960  EFCF  F004         	goto	i2l3219
  5449  000964                     i2u217_40:
  5450  000964                     
  5451                           ; BSR set to: 4
  5452                           ;usb_device.c: 2827:         {;usb_device.c: 2828:             p = (BDT_ENTRY*)pBDTEntry
      +                          Out[SetupPkt.EPNum];
  5453  000964  5134               	movf	52,w,b	;volatile
  5454  000966  0B0F               	andlw	15
  5455  000968  6E3F               	movwf	??_USBStdFeatureReqHandler^0,c
  5456  00096A  503F               	movf	??_USBStdFeatureReqHandler^0,w,c
  5457  00096C  0D02               	mullw	2
  5458  00096E  0E6A               	movlw	low _pBDTEntryOut
  5459  000970  24F3               	addwf	243,w,c
  5460  000972  6ED9               	movwf	fsr2l,c
  5461  000974  0E00               	movlw	high _pBDTEntryOut
  5462  000976  20F4               	addwfc	prodh,w,c
  5463  000978  6EDA               	movwf	fsr2h,c
  5464  00097A  CFDE F044          	movff	postinc2,USBStdFeatureReqHandler@p
  5465  00097E  CFDD F045          	movff	postdec2,USBStdFeatureReqHandler@p+1
  5466  000982                     
  5467                           ; BSR set to: 4
  5468                           ;usb_device.c: 2829:             current_ep_data.Val = ep_data_out[SetupPkt.EPNum].Val;
  5469  000982  5134               	movf	52,w,b	;volatile
  5470  000984  0B0F               	andlw	15
  5471  000986  6E3F               	movwf	??_USBStdFeatureReqHandler^0,c
  5472  000988  6A40               	clrf	(??_USBStdFeatureReqHandler+1)^0,c
  5473  00098A  0E7E               	movlw	low _ep_data_out
  5474  00098C  243F               	addwf	??_USBStdFeatureReqHandler^0,w,c
  5475  00098E  6ED9               	movwf	fsr2l,c
  5476  000990  0E00               	movlw	high _ep_data_out
  5477  000992  2040               	addwfc	(??_USBStdFeatureReqHandler+1)^0,w,c
  5478  000994  6EDA               	movwf	fsr2h,c
  5479  000996  50DF               	movf	indf2,w,c
  5480  000998  6E43               	movwf	USBStdFeatureReqHandler@current_ep_data^0,c
  5481                           
  5482                           ;usb_device.c: 2830:         }
  5483  00099A  EFEA  F004         	goto	i2l3223
  5484  00099E                     i2l3219:
  5485                           
  5486                           ; BSR set to: 4
  5487                           ;usb_device.c: 2832:         {;usb_device.c: 2833:             p = (BDT_ENTRY*)pBDTEntry
      +                          In[SetupPkt.EPNum];
  5488  00099E  5134               	movf	52,w,b	;volatile
  5489  0009A0  0B0F               	andlw	15
  5490  0009A2  6E3F               	movwf	??_USBStdFeatureReqHandler^0,c
  5491  0009A4  503F               	movf	??_USBStdFeatureReqHandler^0,w,c
  5492  0009A6  0D02               	mullw	2
  5493  0009A8  0E0F               	movlw	low _pBDTEntryIn
  5494  0009AA  24F3               	addwf	243,w,c
  5495  0009AC  6ED9               	movwf	fsr2l,c
  5496  0009AE  0E00               	movlw	high _pBDTEntryIn
  5497  0009B0  20F4               	addwfc	prodh,w,c
  5498  0009B2  6EDA               	movwf	fsr2h,c
  5499  0009B4  CFDE F044          	movff	postinc2,USBStdFeatureReqHandler@p
  5500  0009B8  CFDD F045          	movff	postdec2,USBStdFeatureReqHandler@p+1
  5501  0009BC                     
  5502                           ; BSR set to: 4
  5503                           ;usb_device.c: 2834:             current_ep_data.Val = ep_data_in[SetupPkt.EPNum].Val;
  5504  0009BC  5134               	movf	52,w,b	;volatile
  5505  0009BE  0B0F               	andlw	15
  5506  0009C0  6E3F               	movwf	??_USBStdFeatureReqHandler^0,c
  5507  0009C2  6A40               	clrf	(??_USBStdFeatureReqHandler+1)^0,c
  5508  0009C4  0E81               	movlw	low _ep_data_in
  5509  0009C6  243F               	addwf	??_USBStdFeatureReqHandler^0,w,c
  5510  0009C8  6ED9               	movwf	fsr2l,c
  5511  0009CA  0E00               	movlw	high _ep_data_in
  5512  0009CC  2040               	addwfc	(??_USBStdFeatureReqHandler+1)^0,w,c
  5513  0009CE  6EDA               	movwf	fsr2h,c
  5514  0009D0  50DF               	movf	indf2,w,c
  5515  0009D2  6E43               	movwf	USBStdFeatureReqHandler@current_ep_data^0,c
  5516  0009D4                     i2l3223:
  5517                           
  5518                           ; BSR set to: 4
  5519                           ;usb_device.c: 2841:             if(current_ep_data.bits.ping_pong_state == 0)
  5520  0009D4  B043               	btfsc	USBStdFeatureReqHandler@current_ep_data^0,0,c
  5521  0009D6  EFEF  F004         	goto	i2u218_41
  5522  0009DA  EFF1  F004         	goto	i2u218_40
  5523  0009DE                     i2u218_41:
  5524  0009DE  EFF9  F004         	goto	i2l3227
  5525  0009E2                     i2u218_40:
  5526  0009E2                     
  5527                           ; BSR set to: 4
  5528                           ;usb_device.c: 2842:             {;usb_device.c: 2843:                 p = (BDT_ENTRY*)(
      +                          ((uint16_t)p) & (~0x0004));
  5529  0009E2  0EFB               	movlw	251
  5530  0009E4  1444               	andwf	USBStdFeatureReqHandler@p^0,w,c
  5531  0009E6  6E44               	movwf	USBStdFeatureReqHandler@p^0,c
  5532  0009E8  0EFF               	movlw	255
  5533  0009EA  1445               	andwf	(USBStdFeatureReqHandler@p+1)^0,w,c
  5534  0009EC  6E45               	movwf	(USBStdFeatureReqHandler@p+1)^0,c
  5535                           
  5536                           ;usb_device.c: 2844:             }
  5537  0009EE  EFFE  F004         	goto	i2l3229
  5538  0009F2                     i2l3227:
  5539                           
  5540                           ; BSR set to: 4
  5541                           ;usb_device.c: 2846:             {;usb_device.c: 2847:                 p = (BDT_ENTRY*)(
      +                          ((uint16_t)p) | 0x0004);
  5542  0009F2  0E04               	movlw	4
  5543  0009F4  1044               	iorwf	USBStdFeatureReqHandler@p^0,w,c
  5544  0009F6  6E44               	movwf	USBStdFeatureReqHandler@p^0,c
  5545  0009F8  5045               	movf	(USBStdFeatureReqHandler@p+1)^0,w,c
  5546  0009FA  6E45               	movwf	(USBStdFeatureReqHandler@p+1)^0,c
  5547  0009FC                     i2l3229:
  5548                           
  5549                           ; BSR set to: 4
  5550                           ;usb_device.c: 2853:         if(SetupPkt.EPDir == 0)
  5551  0009FC  BF34               	btfsc	52,7,b	;volatile
  5552  0009FE  EF03  F005         	goto	i2u219_41
  5553  000A02  EF05  F005         	goto	i2u219_40
  5554  000A06                     i2u219_41:
  5555  000A06  EF16  F005         	goto	i2l3233
  5556  000A0A                     i2u219_40:
  5557  000A0A                     
  5558                           ; BSR set to: 4
  5559                           ;usb_device.c: 2854:         {;usb_device.c: 2855:             pBDTEntryOut[SetupPkt.EPN
      +                          um] = (volatile BDT_ENTRY *)p;
  5560  000A0A  5134               	movf	52,w,b	;volatile
  5561  000A0C  0B0F               	andlw	15
  5562  000A0E  6E3F               	movwf	??_USBStdFeatureReqHandler^0,c
  5563  000A10  503F               	movf	??_USBStdFeatureReqHandler^0,w,c
  5564  000A12  0D02               	mullw	2
  5565  000A14  0E6A               	movlw	low _pBDTEntryOut
  5566  000A16  24F3               	addwf	243,w,c
  5567  000A18  6ED9               	movwf	fsr2l,c
  5568  000A1A  0E00               	movlw	high _pBDTEntryOut
  5569  000A1C  20F4               	addwfc	prodh,w,c
  5570  000A1E  6EDA               	movwf	fsr2h,c
  5571  000A20  C044  FFDE         	movff	USBStdFeatureReqHandler@p,postinc2
  5572  000A24  C045  FFDD         	movff	USBStdFeatureReqHandler@p+1,postdec2
  5573                           
  5574                           ;usb_device.c: 2856:         }
  5575  000A28  EF25  F005         	goto	i2l3235
  5576  000A2C                     i2l3233:
  5577                           
  5578                           ; BSR set to: 4
  5579                           ;usb_device.c: 2858:         {;usb_device.c: 2859:             pBDTEntryIn[SetupPkt.EPNu
      +                          m] = (volatile BDT_ENTRY *)p;
  5580  000A2C  5134               	movf	52,w,b	;volatile
  5581  000A2E  0B0F               	andlw	15
  5582  000A30  6E3F               	movwf	??_USBStdFeatureReqHandler^0,c
  5583  000A32  503F               	movf	??_USBStdFeatureReqHandler^0,w,c
  5584  000A34  0D02               	mullw	2
  5585  000A36  0E0F               	movlw	low _pBDTEntryIn
  5586  000A38  24F3               	addwf	243,w,c
  5587  000A3A  6ED9               	movwf	fsr2l,c
  5588  000A3C  0E00               	movlw	high _pBDTEntryIn
  5589  000A3E  20F4               	addwfc	prodh,w,c
  5590  000A40  6EDA               	movwf	fsr2h,c
  5591  000A42  C044  FFDE         	movff	USBStdFeatureReqHandler@p,postinc2
  5592  000A46  C045  FFDD         	movff	USBStdFeatureReqHandler@p+1,postdec2
  5593  000A4A                     i2l3235:
  5594                           
  5595                           ; BSR set to: 4
  5596                           ;usb_device.c: 2863:         if(SetupPkt.bRequest == 3)
  5597  000A4A  0E03               	movlw	3
  5598  000A4C  1931               	xorwf	49,w,b	;volatile
  5599  000A4E  A4D8               	btfss	status,2,c
  5600  000A50  EF2C  F005         	goto	i2u220_41
  5601  000A54  EF2E  F005         	goto	i2u220_40
  5602  000A58                     i2u220_41:
  5603  000A58  EF68  F005         	goto	i2l3245
  5604  000A5C                     i2u220_40:
  5605  000A5C                     
  5606                           ; BSR set to: 4
  5607                           ;usb_device.c: 2864:         {;usb_device.c: 2865:             if(p->STAT.UOWN == 1)
  5608  000A5C  C044  FFD9         	movff	USBStdFeatureReqHandler@p,fsr2l
  5609  000A60  C045  FFDA         	movff	USBStdFeatureReqHandler@p+1,fsr2h
  5610  000A64  AEDF               	btfss	indf2,7,c
  5611  000A66  EF37  F005         	goto	i2u221_41
  5612  000A6A  EF39  F005         	goto	i2u221_40
  5613  000A6E                     i2u221_41:
  5614  000A6E  EF5A  F005         	goto	i2l462
  5615  000A72                     i2u221_40:
  5616  000A72                     
  5617                           ; BSR set to: 4
  5618                           ;usb_device.c: 2866:             {;usb_device.c: 2869:                 if(SetupPkt.EPDir
      +                           == 0)
  5619  000A72  BF34               	btfsc	52,7,b	;volatile
  5620  000A74  EF3E  F005         	goto	i2u222_41
  5621  000A78  EF40  F005         	goto	i2u222_40
  5622  000A7C                     i2u222_41:
  5623  000A7C  EF4E  F005         	goto	i2l3243
  5624  000A80                     i2u222_40:
  5625  000A80                     
  5626                           ; BSR set to: 4
  5627                           ;usb_device.c: 2870:                 {;usb_device.c: 2871:                     ep_data_o
      +                          ut[SetupPkt.EPNum].bits.transfer_terminated = 1;
  5628  000A80  5134               	movf	52,w,b	;volatile
  5629  000A82  0B0F               	andlw	15
  5630  000A84  6E3F               	movwf	??_USBStdFeatureReqHandler^0,c
  5631  000A86  6A40               	clrf	(??_USBStdFeatureReqHandler+1)^0,c
  5632  000A88  0E7E               	movlw	low _ep_data_out
  5633  000A8A  243F               	addwf	??_USBStdFeatureReqHandler^0,w,c
  5634  000A8C  6ED9               	movwf	fsr2l,c
  5635  000A8E  0E00               	movlw	high _ep_data_out
  5636  000A90  2040               	addwfc	(??_USBStdFeatureReqHandler+1)^0,w,c
  5637  000A92  6EDA               	movwf	fsr2h,c
  5638  000A94  0100               	movlb	0	; () banked
  5639  000A96  82DF               	bsf	indf2,1,c
  5640                           
  5641                           ;usb_device.c: 2872:                 }
  5642  000A98  EF5A  F005         	goto	i2l462
  5643  000A9C                     i2l3243:
  5644                           
  5645                           ; BSR set to: 4
  5646                           ;usb_device.c: 2874:                 {;usb_device.c: 2875:                     ep_data_i
      +                          n[SetupPkt.EPNum].bits.transfer_terminated = 1;
  5647  000A9C  5134               	movf	52,w,b	;volatile
  5648  000A9E  0B0F               	andlw	15
  5649  000AA0  6E3F               	movwf	??_USBStdFeatureReqHandler^0,c
  5650  000AA2  6A40               	clrf	(??_USBStdFeatureReqHandler+1)^0,c
  5651  000AA4  0E81               	movlw	low _ep_data_in
  5652  000AA6  243F               	addwf	??_USBStdFeatureReqHandler^0,w,c
  5653  000AA8  6ED9               	movwf	fsr2l,c
  5654  000AAA  0E00               	movlw	high _ep_data_in
  5655  000AAC  2040               	addwfc	(??_USBStdFeatureReqHandler+1)^0,w,c
  5656  000AAE  6EDA               	movwf	fsr2h,c
  5657  000AB0  0100               	movlb	0	; () banked
  5658  000AB2  82DF               	bsf	indf2,1,c
  5659  000AB4                     i2l462:
  5660                           
  5661                           ;usb_device.c: 2880:             p->STAT.Val |= 0x04;
  5662  000AB4  C044  FFD9         	movff	USBStdFeatureReqHandler@p,fsr2l
  5663  000AB8  C045  FFDA         	movff	USBStdFeatureReqHandler@p+1,fsr2h
  5664  000ABC  0E00               	movlw	0
  5665  000ABE  84DB               	bsf	plusw2,2,c
  5666                           
  5667                           ;usb_device.c: 2881:             p->STAT.Val |= 0x80;
  5668  000AC0  C044  FFD9         	movff	USBStdFeatureReqHandler@p,fsr2l
  5669  000AC4  C045  FFDA         	movff	USBStdFeatureReqHandler@p+1,fsr2h
  5670  000AC8  0E00               	movlw	0
  5671  000ACA  8EDB               	bsf	plusw2,7,c
  5672                           
  5673                           ;usb_device.c: 2882:         }
  5674  000ACC  EF00  F006         	goto	i2l474
  5675  000AD0                     i2l3245:
  5676                           
  5677                           ; BSR set to: 4
  5678                           ;usb_device.c: 2884:         {;usb_device.c: 2888:                 p = (BDT_ENTRY*)(((ui
      +                          nt16_t)p) ^ 0x0004);
  5679  000AD0  0E04               	movlw	4
  5680  000AD2  1844               	xorwf	USBStdFeatureReqHandler@p^0,w,c
  5681  000AD4  6E44               	movwf	USBStdFeatureReqHandler@p^0,c
  5682  000AD6  5045               	movf	(USBStdFeatureReqHandler@p+1)^0,w,c
  5683  000AD8  6E45               	movwf	(USBStdFeatureReqHandler@p+1)^0,c
  5684  000ADA                     
  5685                           ; BSR set to: 4
  5686                           ;usb_device.c: 2890:                 if(p->STAT.UOWN == 1)
  5687  000ADA  C044  FFD9         	movff	USBStdFeatureReqHandler@p,fsr2l
  5688  000ADE  C045  FFDA         	movff	USBStdFeatureReqHandler@p+1,fsr2h
  5689  000AE2  AEDF               	btfss	indf2,7,c
  5690  000AE4  EF76  F005         	goto	i2u223_41
  5691  000AE8  EF78  F005         	goto	i2u223_40
  5692  000AEC                     i2u223_41:
  5693  000AEC  EF94  F005         	goto	i2l3255
  5694  000AF0                     i2u223_40:
  5695  000AF0                     
  5696                           ; BSR set to: 4
  5697                           ;usb_device.c: 2891:                 {;usb_device.c: 2894:                     p->STAT.V
      +                          al &= (~0x80);
  5698  000AF0  C044  FFD9         	movff	USBStdFeatureReqHandler@p,fsr2l
  5699  000AF4  C045  FFDA         	movff	USBStdFeatureReqHandler@p+1,fsr2h
  5700  000AF8  0E7F               	movlw	127
  5701  000AFA  16DF               	andwf	indf2,f,c
  5702  000AFC                     
  5703                           ; BSR set to: 4
  5704                           ;usb_device.c: 2895:                     p->STAT.Val |= 0x40;
  5705  000AFC  C044  FFD9         	movff	USBStdFeatureReqHandler@p,fsr2l
  5706  000B00  C045  FFDA         	movff	USBStdFeatureReqHandler@p+1,fsr2h
  5707  000B04  0E00               	movlw	0
  5708  000B06  8CDB               	bsf	plusw2,6,c
  5709  000B08                     
  5710                           ; BSR set to: 4
  5711                           ;usb_device.c: 2896:                     USER_USB_CALLBACK_EVENT_HANDLER((USB_EVENT)EVEN
      +                          T_TRANSFER_TERMINATED,p,sizeof(p));
  5712  000B08  0E00               	movlw	0
  5713  000B0A  6E38               	movwf	(USER_USB_CALLBACK_EVENT_HANDLER@event+1)^0,c
  5714  000B0C  0E05               	movlw	5
  5715  000B0E  6E37               	movwf	USER_USB_CALLBACK_EVENT_HANDLER@event^0,c
  5716  000B10  C044  F039         	movff	USBStdFeatureReqHandler@p,USER_USB_CALLBACK_EVENT_HANDLER@pdata
  5717  000B14  C045  F03A         	movff	USBStdFeatureReqHandler@p+1,USER_USB_CALLBACK_EVENT_HANDLER@pdata+1
  5718  000B18  0E00               	movlw	0
  5719  000B1A  6E3C               	movwf	(USER_USB_CALLBACK_EVENT_HANDLER@size+1)^0,c
  5720  000B1C  0E02               	movlw	2
  5721  000B1E  6E3B               	movwf	USER_USB_CALLBACK_EVENT_HANDLER@size^0,c
  5722  000B20  ECFE  F012         	call	_USER_USB_CALLBACK_EVENT_HANDLER	;wreg free
  5723                           
  5724                           ;usb_device.c: 2897:                 }
  5725  000B24  EF9A  F005         	goto	i2l3257
  5726  000B28                     i2l3255:
  5727                           
  5728                           ; BSR set to: 4
  5729                           ;usb_device.c: 2899:                 {;usb_device.c: 2901:      p->STAT.Val |= 0x40;
  5730  000B28  C044  FFD9         	movff	USBStdFeatureReqHandler@p,fsr2l
  5731  000B2C  C045  FFDA         	movff	USBStdFeatureReqHandler@p+1,fsr2h
  5732  000B30  0E00               	movlw	0
  5733  000B32  8CDB               	bsf	plusw2,6,c
  5734  000B34                     i2l3257:
  5735                           
  5736                           ;usb_device.c: 2906:                 p = (BDT_ENTRY*)(((uint16_t)p) ^ 0x0004);
  5737  000B34  0E04               	movlw	4
  5738  000B36  1844               	xorwf	USBStdFeatureReqHandler@p^0,w,c
  5739  000B38  6E44               	movwf	USBStdFeatureReqHandler@p^0,c
  5740  000B3A  5045               	movf	(USBStdFeatureReqHandler@p+1)^0,w,c
  5741  000B3C  6E45               	movwf	(USBStdFeatureReqHandler@p+1)^0,c
  5742  000B3E                     
  5743                           ;usb_device.c: 2912:                 if((current_ep_data.bits.transfer_terminated != 0) 
      +                          || (p->STAT.UOWN == 1))
  5744  000B3E  B243               	btfsc	USBStdFeatureReqHandler@current_ep_data^0,1,c
  5745  000B40  EFA4  F005         	goto	i2u224_41
  5746  000B44  EFA6  F005         	goto	i2u224_40
  5747  000B48                     i2u224_41:
  5748  000B48  EFB1  F005         	goto	i2l470
  5749  000B4C                     i2u224_40:
  5750  000B4C  C044  FFD9         	movff	USBStdFeatureReqHandler@p,fsr2l
  5751  000B50  C045  FFDA         	movff	USBStdFeatureReqHandler@p+1,fsr2h
  5752  000B54  AEDF               	btfss	indf2,7,c
  5753  000B56  EFAF  F005         	goto	i2u225_41
  5754  000B5A  EFB1  F005         	goto	i2u225_40
  5755  000B5E                     i2u225_41:
  5756  000B5E  EFE9  F005         	goto	i2l3271
  5757  000B62                     i2u225_40:
  5758  000B62                     i2l470:
  5759                           
  5760                           ;usb_device.c: 2913:                 {;usb_device.c: 2914:                     if(SetupP
      +                          kt.EPDir == 0)
  5761  000B62  0104               	movlb	4	; () banked
  5762  000B64  BF34               	btfsc	52,7,b	;volatile
  5763  000B66  EFB7  F005         	goto	i2u226_41
  5764  000B6A  EFB9  F005         	goto	i2u226_40
  5765  000B6E                     i2u226_41:
  5766  000B6E  EFC7  F005         	goto	i2l3265
  5767  000B72                     i2u226_40:
  5768  000B72                     
  5769                           ; BSR set to: 4
  5770                           ;usb_device.c: 2915:                     {;usb_device.c: 2916:                         e
      +                          p_data_out[SetupPkt.EPNum].bits.transfer_terminated = 0;
  5771  000B72  5134               	movf	52,w,b	;volatile
  5772  000B74  0B0F               	andlw	15
  5773  000B76  6E3F               	movwf	??_USBStdFeatureReqHandler^0,c
  5774  000B78  6A40               	clrf	(??_USBStdFeatureReqHandler+1)^0,c
  5775  000B7A  0E7E               	movlw	low _ep_data_out
  5776  000B7C  243F               	addwf	??_USBStdFeatureReqHandler^0,w,c
  5777  000B7E  6ED9               	movwf	fsr2l,c
  5778  000B80  0E00               	movlw	high _ep_data_out
  5779  000B82  2040               	addwfc	(??_USBStdFeatureReqHandler+1)^0,w,c
  5780  000B84  6EDA               	movwf	fsr2h,c
  5781  000B86  0100               	movlb	0	; () banked
  5782  000B88  92DF               	bcf	indf2,1,c
  5783                           
  5784                           ;usb_device.c: 2917:                     }
  5785  000B8A  EFD3  F005         	goto	i2l3267
  5786  000B8E                     i2l3265:
  5787                           
  5788                           ; BSR set to: 4
  5789                           ;usb_device.c: 2919:                     {;usb_device.c: 2920:                         e
      +                          p_data_in[SetupPkt.EPNum].bits.transfer_terminated = 0;
  5790  000B8E  5134               	movf	52,w,b	;volatile
  5791  000B90  0B0F               	andlw	15
  5792  000B92  6E3F               	movwf	??_USBStdFeatureReqHandler^0,c
  5793  000B94  6A40               	clrf	(??_USBStdFeatureReqHandler+1)^0,c
  5794  000B96  0E81               	movlw	low _ep_data_in
  5795  000B98  243F               	addwf	??_USBStdFeatureReqHandler^0,w,c
  5796  000B9A  6ED9               	movwf	fsr2l,c
  5797  000B9C  0E00               	movlw	high _ep_data_in
  5798  000B9E  2040               	addwfc	(??_USBStdFeatureReqHandler+1)^0,w,c
  5799  000BA0  6EDA               	movwf	fsr2h,c
  5800  000BA2  0100               	movlb	0	; () banked
  5801  000BA4  92DF               	bcf	indf2,1,c
  5802  000BA6                     i2l3267:
  5803                           
  5804                           ; BSR set to: 0
  5805                           ;usb_device.c: 2923:                     p->STAT.Val &= ~(0x80 | 0x40 | 0x04);
  5806  000BA6  C044  FFD9         	movff	USBStdFeatureReqHandler@p,fsr2l
  5807  000BAA  C045  FFDA         	movff	USBStdFeatureReqHandler@p+1,fsr2h
  5808  000BAE  0E3B               	movlw	59
  5809  000BB0  16DF               	andwf	indf2,f,c
  5810  000BB2                     
  5811                           ; BSR set to: 0
  5812                           ;usb_device.c: 2926:                     USER_USB_CALLBACK_EVENT_HANDLER((USB_EVENT)EVEN
      +                          T_TRANSFER_TERMINATED,p,sizeof(p));
  5813  000BB2  0E00               	movlw	0
  5814  000BB4  6E38               	movwf	(USER_USB_CALLBACK_EVENT_HANDLER@event+1)^0,c
  5815  000BB6  0E05               	movlw	5
  5816  000BB8  6E37               	movwf	USER_USB_CALLBACK_EVENT_HANDLER@event^0,c
  5817  000BBA  C044  F039         	movff	USBStdFeatureReqHandler@p,USER_USB_CALLBACK_EVENT_HANDLER@pdata
  5818  000BBE  C045  F03A         	movff	USBStdFeatureReqHandler@p+1,USER_USB_CALLBACK_EVENT_HANDLER@pdata+1
  5819  000BC2  0E00               	movlw	0
  5820  000BC4  6E3C               	movwf	(USER_USB_CALLBACK_EVENT_HANDLER@size+1)^0,c
  5821  000BC6  0E02               	movlw	2
  5822  000BC8  6E3B               	movwf	USER_USB_CALLBACK_EVENT_HANDLER@size^0,c
  5823  000BCA  ECFE  F012         	call	_USER_USB_CALLBACK_EVENT_HANDLER	;wreg free
  5824                           
  5825                           ;usb_device.c: 2927:                 }
  5826  000BCE  EFEF  F005         	goto	i2l3273
  5827  000BD2                     i2l3271:
  5828                           
  5829                           ;usb_device.c: 2929:                 {;usb_device.c: 2931:                     p->STAT.V
      +                          al &= ~(0x80 | 0x40 | 0x04);
  5830  000BD2  C044  FFD9         	movff	USBStdFeatureReqHandler@p,fsr2l
  5831  000BD6  C045  FFDA         	movff	USBStdFeatureReqHandler@p+1,fsr2h
  5832  000BDA  0E3B               	movlw	59
  5833  000BDC  16DF               	andwf	indf2,f,c
  5834  000BDE                     i2l3273:
  5835                           
  5836                           ;usb_device.c: 2979:                 pUEP = (unsigned char*)(&UEP0+SetupPkt.EPNum);
  5837  000BDE  0104               	movlb	4	; () banked
  5838  000BE0  5134               	movf	52,w,b	;volatile
  5839  000BE2  0B0F               	andlw	15
  5840  000BE4  6E3F               	movwf	??_USBStdFeatureReqHandler^0,c
  5841  000BE6  6A40               	clrf	(??_USBStdFeatureReqHandler+1)^0,c
  5842  000BE8  0E70               	movlw	112
  5843  000BEA  243F               	addwf	??_USBStdFeatureReqHandler^0,w,c
  5844  000BEC  6E41               	movwf	USBStdFeatureReqHandler@pUEP^0,c
  5845  000BEE  0E0F               	movlw	15
  5846  000BF0  2040               	addwfc	(??_USBStdFeatureReqHandler+1)^0,w,c
  5847  000BF2  6E42               	movwf	(USBStdFeatureReqHandler@pUEP+1)^0,c
  5848  000BF4                     
  5849                           ; BSR set to: 4
  5850                           ;usb_device.c: 2983:             *pUEP &= ~0x0001;
  5851  000BF4  C041  FFD9         	movff	USBStdFeatureReqHandler@pUEP,fsr2l
  5852  000BF8  C042  FFDA         	movff	USBStdFeatureReqHandler@pUEP+1,fsr2h
  5853  000BFC  0EFE               	movlw	254
  5854  000BFE  16DF               	andwf	indf2,f,c
  5855  000C00                     i2l474:
  5856  000C00  0012               	return		;funcret
  5857  000C02                     __end_of_USBStdFeatureReqHandler:
  5858                           	opt callstack 0
  5859                           
  5860 ;; *************** function _USER_USB_CALLBACK_EVENT_HANDLER *****************
  5861 ;; Defined at:
  5862 ;;		line 49 in file "usb_device_events.c"
  5863 ;; Parameters:    Size  Location     Type
  5864 ;;  event           2   12[COMRAM] enum E44
  5865 ;;  pdata           2   14[COMRAM] PTR void 
  5866 ;;		 -> RAM(2047), USTATcopy(1), USBActiveConfiguration(1), NULL(0), 
  5867 ;;		 -> BDT(48), 
  5868 ;;  size            2   16[COMRAM] unsigned short 
  5869 ;; Auto vars:     Size  Location     Type
  5870 ;;		None
  5871 ;; Return value:  Size  Location     Type
  5872 ;;                  1    wreg      _Bool 
  5873 ;; Registers used:
  5874 ;;		wreg, fsr2l, fsr2h, status,2, status,0, prodl, prodh, cstack
  5875 ;; Tracked objects:
  5876 ;;		On entry : 0/0
  5877 ;;		On exit  : 0/0
  5878 ;;		Unchanged: 0/0
  5879 ;; Data sizes:     COMRAM   BANK0   BANK1   BANK2   BANK3  BANK4h  BANK4l   BANK5   BANK6   BANK7
  5880 ;;      Params:         6       0       0       0       0       0       0       0       0       0
  5881 ;;      Locals:         0       0       0       0       0       0       0       0       0       0
  5882 ;;      Temps:          2       0       0       0       0       0       0       0       0       0
  5883 ;;      Totals:         8       0       0       0       0       0       0       0       0       0
  5884 ;;Total ram usage:        8 bytes
  5885 ;; Hardware stack levels used:    1
  5886 ;; Hardware stack levels required when called:    3
  5887 ;; This function calls:
  5888 ;;		_CDCInitEP
  5889 ;;		_USBCheckCDCRequest
  5890 ;; This function is called by:
  5891 ;;		_USBDeviceTasks
  5892 ;;		_USBStdSetCfgHandler
  5893 ;;		_USBSuspend
  5894 ;;		_USBWakeFromSuspend
  5895 ;;		_USBCtrlTrfSetupHandler
  5896 ;;		_USBCheckStdRequest
  5897 ;;		_USBStdFeatureReqHandler
  5898 ;; This function uses a non-reentrant model
  5899 ;;
  5900                           
  5901                           	psect	text28
  5902  0025FC                     __ptext28:
  5903                           	opt callstack 0
  5904  0025FC                     _USER_USB_CALLBACK_EVENT_HANDLER:
  5905                           	opt callstack 21
  5906  0025FC                     
  5907                           ;usb_device_events.c: 49: _Bool USER_USB_CALLBACK_EVENT_HANDLER(USB_EVENT event, void *p
      +                          data, uint16_t size);usb_device_events.c: 50: {;usb_device_events.c: 51:     switch( (in
      +                          t) event )
  5908  0025FC  EF08  F013         	goto	i2l2941
  5909  002600                     i2l2935:
  5910                           
  5911                           ;usb_device_events.c: 76:             CDCInitEP();
  5912  002600  EC7C  F013         	call	_CDCInitEP	;wreg free
  5913                           
  5914                           ;usb_device_events.c: 77:             break;
  5915  002604  EF41  F013         	goto	i2l621
  5916  002608                     i2l2937:
  5917                           
  5918                           ;usb_device_events.c: 85:             USBCheckCDCRequest();
  5919  002608  ECF2  F00F         	call	_USBCheckCDCRequest	;wreg free
  5920                           
  5921                           ;usb_device_events.c: 86:             break;
  5922  00260C  EF41  F013         	goto	i2l621
  5923  002610                     i2l2941:
  5924  002610  C037  F03D         	movff	USER_USB_CALLBACK_EVENT_HANDLER@event,??_USER_USB_CALLBACK_EVENT_HANDLER
  5925  002614  C038  F03E         	movff	USER_USB_CALLBACK_EVENT_HANDLER@event+1,??_USER_USB_CALLBACK_EVENT_HANDLER+1
  5926                           
  5927                           ; Switch on 2 bytes has been partitioned into a top level switch of size 1, and 2 sub-sw
      +                          itches
  5928                           ; Switch size 1, requested type "simple"
  5929                           ; Number of cases is 2, Range of values is 0 to 127
  5930                           ; switch strategies available:
  5931                           ; Name         Instructions Cycles
  5932                           ; simple_byte            7     4 (average)
  5933                           ;	Chosen strategy is simple_byte
  5934  002618  503E               	movf	(??_USER_USB_CALLBACK_EVENT_HANDLER+1)^0,w,c
  5935  00261A  0A00               	xorlw	0	; case 0
  5936  00261C  B4D8               	btfsc	status,2,c
  5937  00261E  EF17  F013         	goto	i2l4773
  5938  002622  0A7F               	xorlw	127	; case 127
  5939  002624  B4D8               	btfsc	status,2,c
  5940  002626  EF3A  F013         	goto	i2l4775
  5941  00262A  EF41  F013         	goto	i2l621
  5942  00262E                     i2l4773:
  5943                           
  5944                           ; Switch size 1, requested type "simple"
  5945                           ; Number of cases is 8, Range of values is 1 to 117
  5946                           ; switch strategies available:
  5947                           ; Name         Instructions Cycles
  5948                           ; simple_byte           25    13 (average)
  5949                           ;	Chosen strategy is simple_byte
  5950  00262E  503D               	movf	??_USER_USB_CALLBACK_EVENT_HANDLER^0,w,c
  5951  002630  0A01               	xorlw	1	; case 1
  5952  002632  B4D8               	btfsc	status,2,c
  5953  002634  EF00  F013         	goto	i2l2935
  5954  002638  0A03               	xorlw	3	; case 2
  5955  00263A  B4D8               	btfsc	status,2,c
  5956  00263C  EF41  F013         	goto	i2l621
  5957  002640  0A01               	xorlw	1	; case 3
  5958  002642  B4D8               	btfsc	status,2,c
  5959  002644  EF04  F013         	goto	i2l2937
  5960  002648  0A06               	xorlw	6	; case 5
  5961  00264A  B4D8               	btfsc	status,2,c
  5962  00264C  EF41  F013         	goto	i2l621
  5963  002650  0A77               	xorlw	119	; case 114
  5964  002652  B4D8               	btfsc	status,2,c
  5965  002654  EF41  F013         	goto	i2l621
  5966  002658  0A01               	xorlw	1	; case 115
  5967  00265A  B4D8               	btfsc	status,2,c
  5968  00265C  EF41  F013         	goto	i2l621
  5969  002660  0A07               	xorlw	7	; case 116
  5970  002662  B4D8               	btfsc	status,2,c
  5971  002664  EF41  F013         	goto	i2l621
  5972  002668  0A01               	xorlw	1	; case 117
  5973  00266A  B4D8               	btfsc	status,2,c
  5974  00266C  EF41  F013         	goto	i2l621
  5975  002670  EF41  F013         	goto	i2l621
  5976  002674                     i2l4775:
  5977                           
  5978                           ; Switch size 1, requested type "simple"
  5979                           ; Number of cases is 1, Range of values is 255 to 255
  5980                           ; switch strategies available:
  5981                           ; Name         Instructions Cycles
  5982                           ; simple_byte            4     3 (average)
  5983                           ;	Chosen strategy is simple_byte
  5984  002674  503D               	movf	??_USER_USB_CALLBACK_EVENT_HANDLER^0,w,c
  5985  002676  0AFF               	xorlw	255	; case 255
  5986  002678  B4D8               	btfsc	status,2,c
  5987  00267A  EF41  F013         	goto	i2l621
  5988  00267E  EF41  F013         	goto	i2l621
  5989  002682                     i2l621:
  5990  002682  0012               	return		;funcret
  5991  002684                     __end_of_USER_USB_CALLBACK_EVENT_HANDLER:
  5992                           	opt callstack 0
  5993                           
  5994 ;; *************** function _USBCheckCDCRequest *****************
  5995 ;; Defined at:
  5996 ;;		line 147 in file "usb_device_cdc.c"
  5997 ;; Parameters:    Size  Location     Type
  5998 ;;		None
  5999 ;; Auto vars:     Size  Location     Type
  6000 ;;		None
  6001 ;; Return value:  Size  Location     Type
  6002 ;;                  1    wreg      void 
  6003 ;; Registers used:
  6004 ;;		wreg, status,2, status,0
  6005 ;; Tracked objects:
  6006 ;;		On entry : 0/0
  6007 ;;		On exit  : 0/0
  6008 ;;		Unchanged: 0/0
  6009 ;; Data sizes:     COMRAM   BANK0   BANK1   BANK2   BANK3  BANK4h  BANK4l   BANK5   BANK6   BANK7
  6010 ;;      Params:         0       0       0       0       0       0       0       0       0       0
  6011 ;;      Locals:         0       0       0       0       0       0       0       0       0       0
  6012 ;;      Temps:          2       0       0       0       0       0       0       0       0       0
  6013 ;;      Totals:         2       0       0       0       0       0       0       0       0       0
  6014 ;;Total ram usage:        2 bytes
  6015 ;; Hardware stack levels used:    1
  6016 ;; This function calls:
  6017 ;;		Nothing
  6018 ;; This function is called by:
  6019 ;;		_USER_USB_CALLBACK_EVENT_HANDLER
  6020 ;; This function uses a non-reentrant model
  6021 ;;
  6022                           
  6023                           	psect	text29
  6024  001FE4                     __ptext29:
  6025                           	opt callstack 0
  6026  001FE4                     _USBCheckCDCRequest:
  6027                           	opt callstack 23
  6028  001FE4                     
  6029                           ;usb_device_cdc.c: 152:     if(SetupPkt.Recipient != (0x01)) return;
  6030  001FE4  0104               	movlb	4	; () banked
  6031  001FE6  5130               	movf	48,w,b	;volatile
  6032  001FE8  0B1F               	andlw	31
  6033  001FEA  06E8               	decf	wreg,f,c
  6034  001FEC  B4D8               	btfsc	status,2,c
  6035  001FEE  EFFB  F00F         	goto	i2u173_41
  6036  001FF2  EFFD  F00F         	goto	i2u173_40
  6037  001FF6                     i2u173_41:
  6038  001FF6  EFFF  F00F         	goto	i2l2879
  6039  001FFA                     i2u173_40:
  6040  001FFA  EF72  F010         	goto	i2l530
  6041  001FFE                     i2l2879:
  6042                           
  6043                           ; BSR set to: 4
  6044                           ;usb_device_cdc.c: 157:     if(SetupPkt.RequestType != (0x20>>5)) return;
  6045  001FFE  3930               	swapf	48,w,b	;volatile
  6046  002000  32E8               	rrcf	wreg,f,c
  6047  002002  0B03               	andlw	3
  6048  002004  06E8               	decf	wreg,f,c
  6049  002006  B4D8               	btfsc	status,2,c
  6050  002008  EF08  F010         	goto	i2u174_41
  6051  00200C  EF0A  F010         	goto	i2u174_40
  6052  002010                     i2u174_41:
  6053  002010  EF0C  F010         	goto	i2l2883
  6054  002014                     i2u174_40:
  6055  002014  EF72  F010         	goto	i2l530
  6056  002018                     i2l2883:
  6057                           
  6058                           ; BSR set to: 4
  6059                           ;usb_device_cdc.c: 163:     if((SetupPkt.bIntfID != 0x0)&&
  6060  002018  5134               	movf	52,w,b	;volatile
  6061  00201A  B4D8               	btfsc	status,2,c
  6062  00201C  EF12  F010         	goto	i2u175_41
  6063  002020  EF14  F010         	goto	i2u175_40
  6064  002024                     i2u175_41:
  6065  002024  EF51  F010         	goto	i2l2913
  6066  002028                     i2u175_40:
  6067  002028                     
  6068                           ; BSR set to: 4
  6069  002028  0534               	decf	52,w,b	;volatile
  6070  00202A  B4D8               	btfsc	status,2,c
  6071  00202C  EF1A  F010         	goto	i2u176_41
  6072  002030  EF1C  F010         	goto	i2u176_40
  6073  002034                     i2u176_41:
  6074  002034  EF51  F010         	goto	i2l2913
  6075  002038                     i2u176_40:
  6076  002038  EF72  F010         	goto	i2l530
  6077  00203C                     i2l2889:
  6078                           
  6079                           ; BSR set to: 4
  6080                           ;usb_device_cdc.c: 171:             inPipes[0].pSrc.bRam = (uint8_t*)&dummy_encapsulated
      +                          _cmd_response;
  6081  00203C  0E8E               	movlw	low _dummy_encapsulated_cmd_response
  6082  00203E  6E09               	movwf	_inPipes^0,c	;volatile
  6083  002040  0E00               	movlw	high _dummy_encapsulated_cmd_response
  6084  002042  6E0A               	movwf	(_inPipes+1)^0,c	;volatile
  6085  002044                     
  6086                           ; BSR set to: 4
  6087                           ;usb_device_cdc.c: 172:             inPipes[0].wCount.Val = 0x08;
  6088  002044  0E00               	movlw	0
  6089  002046  6E0E               	movwf	(_inPipes+5)^0,c	;volatile
  6090  002048  0E08               	movlw	8
  6091  00204A  6E0D               	movwf	(_inPipes+4)^0,c	;volatile
  6092  00204C                     
  6093                           ; BSR set to: 4
  6094                           ;usb_device_cdc.c: 173:             inPipes[0].info.bits.ctrl_trf_mem = 0x01;
  6095  00204C  800C               	bsf	(_inPipes+3)^0,0,c	;volatile
  6096  00204E                     
  6097                           ; BSR set to: 4
  6098                           ;usb_device_cdc.c: 174:             inPipes[0].info.bits.busy = 1;
  6099  00204E  8E0C               	bsf	(_inPipes+3)^0,7,c	;volatile
  6100                           
  6101                           ;usb_device_cdc.c: 175:             break;
  6102  002050  EF72  F010         	goto	i2l530
  6103  002054                     i2l2897:
  6104                           
  6105                           ; BSR set to: 4
  6106                           ;usb_device_cdc.c: 178:             inPipes[0].pSrc.bRam = (uint8_t*)&dummy_encapsulated
      +                          _cmd_response;
  6107  002054  0E8E               	movlw	low _dummy_encapsulated_cmd_response
  6108  002056  6E09               	movwf	_inPipes^0,c	;volatile
  6109  002058  0E00               	movlw	high _dummy_encapsulated_cmd_response
  6110  00205A  6E0A               	movwf	(_inPipes+1)^0,c	;volatile
  6111  00205C                     
  6112                           ; BSR set to: 4
  6113                           ;usb_device_cdc.c: 179:             inPipes[0].info.bits.busy = 1;
  6114  00205C  8E0C               	bsf	(_inPipes+3)^0,7,c	;volatile
  6115                           
  6116                           ;usb_device_cdc.c: 180:             break;
  6117  00205E  EF72  F010         	goto	i2l530
  6118  002062                     i2l537:
  6119                           
  6120                           ; BSR set to: 4
  6121                           ;usb_device_cdc.c: 185:             outPipes[0].wCount.Val = SetupPkt.wLength;
  6122  002062  C436 F005          	movff	1078,_outPipes+4	;volatile
  6123  002066  C437 F006          	movff	1079,_outPipes+5	;volatile
  6124  00206A                     
  6125                           ; BSR set to: 4
  6126                           ;usb_device_cdc.c: 186:             outPipes[0].pDst.bRam = (uint8_t*)&line_coding._byte
      +                          [0];
  6127  00206A  0E96               	movlw	low _line_coding
  6128  00206C  6E01               	movwf	_outPipes^0,c	;volatile
  6129  00206E  0E00               	movlw	high _line_coding
  6130  002070  6E02               	movwf	(_outPipes+1)^0,c	;volatile
  6131                           
  6132                           ;usb_device_cdc.c: 187:             outPipes[0].pFunc = ((void*)0);
  6133  002072  0E00               	movlw	0
  6134  002074  6E07               	movwf	(_outPipes+6)^0,c	;volatile
  6135  002076  0E00               	movlw	0
  6136  002078  6E08               	movwf	(_outPipes+7)^0,c	;volatile
  6137  00207A                     
  6138                           ; BSR set to: 4
  6139                           ;usb_device_cdc.c: 188:             outPipes[0].info.bits.busy = 1;
  6140  00207A  8E04               	bsf	(_outPipes+3)^0,7,c	;volatile
  6141                           
  6142                           ;usb_device_cdc.c: 189:             break;
  6143  00207C  EF72  F010         	goto	i2l530
  6144  002080                     i2l2905:
  6145                           
  6146                           ; BSR set to: 4
  6147                           ;usb_device_cdc.c: 192:             { inPipes[0].pSrc.bRam = (uint8_t*)&line_coding; inP
      +                          ipes[0].wCount.Val = 0x07; inPipes[0].info.Val = 0x40 | 0x80 | 0x01; };
  6148  002080  0E96               	movlw	low _line_coding
  6149  002082  6E09               	movwf	_inPipes^0,c	;volatile
  6150  002084  0E00               	movlw	high _line_coding
  6151  002086  6E0A               	movwf	(_inPipes+1)^0,c	;volatile
  6152  002088                     
  6153                           ; BSR set to: 4
  6154  002088  0E00               	movlw	0
  6155  00208A  6E0E               	movwf	(_inPipes+5)^0,c	;volatile
  6156  00208C  0E07               	movlw	7
  6157  00208E  6E0D               	movwf	(_inPipes+4)^0,c	;volatile
  6158  002090                     
  6159                           ; BSR set to: 4
  6160  002090  0EC1               	movlw	193
  6161  002092  6E0C               	movwf	(_inPipes+3)^0,c	;volatile
  6162                           
  6163                           ;usb_device_cdc.c: 196:             break;
  6164  002094  EF72  F010         	goto	i2l530
  6165  002098                     i2l539:
  6166                           
  6167                           ; BSR set to: 4
  6168                           ;usb_device_cdc.c: 199:             control_signal_bitmap._byte = (uint8_t)SetupPkt.wVal
      +                          ue;
  6169  002098  C432 F088          	movff	1074,_control_signal_bitmap	;volatile
  6170                           
  6171                           ;usb_device_cdc.c: 231:             inPipes[0].info.bits.busy = 1;
  6172  00209C  8E0C               	bsf	(_inPipes+3)^0,7,c	;volatile
  6173                           
  6174                           ;usb_device_cdc.c: 232:             break;
  6175  00209E  EF72  F010         	goto	i2l530
  6176  0020A2                     i2l2913:
  6177                           
  6178                           ; BSR set to: 4
  6179  0020A2  5131               	movf	49,w,b	;volatile
  6180  0020A4  6E2B               	movwf	??_USBCheckCDCRequest^0,c
  6181  0020A6  6A2C               	clrf	(??_USBCheckCDCRequest+1)^0,c
  6182                           
  6183                           ; Switch on 2 bytes has been partitioned into a top level switch of size 1, and 1 sub-sw
      +                          itches
  6184                           ; Switch size 1, requested type "simple"
  6185                           ; Number of cases is 1, Range of values is 0 to 0
  6186                           ; switch strategies available:
  6187                           ; Name         Instructions Cycles
  6188                           ; simple_byte            4     3 (average)
  6189                           ;	Chosen strategy is simple_byte
  6190  0020A8  502C               	movf	(??_USBCheckCDCRequest+1)^0,w,c
  6191  0020AA  0A00               	xorlw	0	; case 0
  6192  0020AC  B4D8               	btfsc	status,2,c
  6193  0020AE  EF5B  F010         	goto	i2l4777
  6194  0020B2  EF72  F010         	goto	i2l530
  6195  0020B6                     i2l4777:
  6196                           
  6197                           ; BSR set to: 4
  6198                           ; Switch size 1, requested type "simple"
  6199                           ; Number of cases is 5, Range of values is 0 to 34
  6200                           ; switch strategies available:
  6201                           ; Name         Instructions Cycles
  6202                           ; simple_byte           16     9 (average)
  6203                           ;	Chosen strategy is simple_byte
  6204  0020B6  502B               	movf	??_USBCheckCDCRequest^0,w,c
  6205  0020B8  0A00               	xorlw	0	; case 0
  6206  0020BA  B4D8               	btfsc	status,2,c
  6207  0020BC  EF1E  F010         	goto	i2l2889
  6208  0020C0  0A01               	xorlw	1	; case 1
  6209  0020C2  B4D8               	btfsc	status,2,c
  6210  0020C4  EF2A  F010         	goto	i2l2897
  6211  0020C8  0A21               	xorlw	33	; case 32
  6212  0020CA  B4D8               	btfsc	status,2,c
  6213  0020CC  EF31  F010         	goto	i2l537
  6214  0020D0  0A01               	xorlw	1	; case 33
  6215  0020D2  B4D8               	btfsc	status,2,c
  6216  0020D4  EF40  F010         	goto	i2l2905
  6217  0020D8  0A03               	xorlw	3	; case 34
  6218  0020DA  B4D8               	btfsc	status,2,c
  6219  0020DC  EF4C  F010         	goto	i2l539
  6220  0020E0  EF72  F010         	goto	i2l530
  6221  0020E4                     i2l530:
  6222                           
  6223                           ; BSR set to: 4
  6224  0020E4  0012               	return		;funcret
  6225  0020E6                     __end_of_USBCheckCDCRequest:
  6226                           	opt callstack 0
  6227                           
  6228 ;; *************** function _CDCInitEP *****************
  6229 ;; Defined at:
  6230 ;;		line 294 in file "usb_device_cdc.c"
  6231 ;; Parameters:    Size  Location     Type
  6232 ;;		None
  6233 ;; Auto vars:     Size  Location     Type
  6234 ;;		None
  6235 ;; Return value:  Size  Location     Type
  6236 ;;                  1    wreg      void 
  6237 ;; Registers used:
  6238 ;;		wreg, fsr2l, fsr2h, status,2, status,0, prodl, prodh, cstack
  6239 ;; Tracked objects:
  6240 ;;		On entry : 0/0
  6241 ;;		On exit  : 0/0
  6242 ;;		Unchanged: 0/0
  6243 ;; Data sizes:     COMRAM   BANK0   BANK1   BANK2   BANK3  BANK4h  BANK4l   BANK5   BANK6   BANK7
  6244 ;;      Params:         0       0       0       0       0       0       0       0       0       0
  6245 ;;      Locals:         0       0       0       0       0       0       0       0       0       0
  6246 ;;      Temps:          0       0       0       0       0       0       0       0       0       0
  6247 ;;      Totals:         0       0       0       0       0       0       0       0       0       0
  6248 ;;Total ram usage:        0 bytes
  6249 ;; Hardware stack levels used:    1
  6250 ;; Hardware stack levels required when called:    2
  6251 ;; This function calls:
  6252 ;;		_USBEnableEndpoint
  6253 ;;		i2_USBTransferOnePacket
  6254 ;; This function is called by:
  6255 ;;		_USER_USB_CALLBACK_EVENT_HANDLER
  6256 ;; This function uses a non-reentrant model
  6257 ;;
  6258                           
  6259                           	psect	text30
  6260  0026F8                     __ptext30:
  6261                           	opt callstack 0
  6262  0026F8                     _CDCInitEP:
  6263                           	opt callstack 21
  6264  0026F8                     
  6265                           ;usb_device_cdc.c: 297:     line_coding.dwDTERate = 19200;
  6266  0026F8  0E00               	movlw	0
  6267  0026FA  0100               	movlb	0	; () banked
  6268  0026FC  6F96               	movwf	_line_coding& (0+255),b
  6269  0026FE  0E4B               	movlw	75
  6270  002700  6F97               	movwf	(_line_coding+1)& (0+255),b
  6271  002702  0E00               	movlw	0
  6272  002704  6F98               	movwf	(_line_coding+2)& (0+255),b
  6273  002706  0E00               	movlw	0
  6274  002708  6F99               	movwf	(_line_coding+3)& (0+255),b
  6275                           
  6276                           ;usb_device_cdc.c: 298:     line_coding.bCharFormat = 0x00;
  6277  00270A  0E00               	movlw	0
  6278  00270C  6F9A               	movwf	(_line_coding+4)& (0+255),b
  6279                           
  6280                           ;usb_device_cdc.c: 299:     line_coding.bParityType = 0x00;
  6281  00270E  0E00               	movlw	0
  6282  002710  6F9B               	movwf	(_line_coding+5)& (0+255),b
  6283                           
  6284                           ;usb_device_cdc.c: 300:     line_coding.bDataBits = 0x08;
  6285  002712  0E08               	movlw	8
  6286  002714  6F9C               	movwf	(_line_coding+6)& (0+255),b
  6287                           
  6288                           ;usb_device_cdc.c: 302:     cdc_rx_len = 0;
  6289  002716  0E00               	movlw	0
  6290  002718  6E1D               	movwf	_cdc_rx_len^0,c
  6291  00271A                     
  6292                           ; BSR set to: 0
  6293                           ;usb_device_cdc.c: 315:     USBEnableEndpoint(1,0x02|0x10|0x08);
  6294  00271A  0E1A               	movlw	26
  6295  00271C  6E33               	movwf	USBEnableEndpoint@options^0,c
  6296  00271E  0E01               	movlw	1
  6297  002720  EC33  F014         	call	_USBEnableEndpoint
  6298  002724                     
  6299                           ;usb_device_cdc.c: 316:     USBEnableEndpoint(2,0x02|0x04|0x10|0x08);
  6300  002724  0E1E               	movlw	30
  6301  002726  6E33               	movwf	USBEnableEndpoint@options^0,c
  6302  002728  0E02               	movlw	2
  6303  00272A  EC33  F014         	call	_USBEnableEndpoint
  6304  00272E                     
  6305                           ;usb_device_cdc.c: 318:     CDCDataOutHandle = USBTransferOnePacket(2,0,(uint8_t*)&cdc_d
      +                          ata_rx,sizeof(cdc_data_rx));
  6306  00272E  0E00               	movlw	0
  6307  002730  6E2B               	movwf	i2USBTransferOnePacket@dir^0,c
  6308  002732  0E40               	movlw	64
  6309  002734  6E2C               	movwf	i2USBTransferOnePacket@data^0,c
  6310  002736  0E05               	movlw	5
  6311  002738  6E2D               	movwf	(i2USBTransferOnePacket@data+1)^0,c
  6312  00273A  0E40               	movlw	64
  6313  00273C  6E2E               	movwf	i2USBTransferOnePacket@len^0,c
  6314  00273E  0E02               	movlw	2
  6315  002740  EC3A  F00D         	call	i2_USBTransferOnePacket
  6316  002744  C02B  F015         	movff	?i2_USBTransferOnePacket,_CDCDataOutHandle
  6317  002748  C02C  F016         	movff	?i2_USBTransferOnePacket+1,_CDCDataOutHandle+1
  6318  00274C                     
  6319                           ;usb_device_cdc.c: 319:     CDCDataInHandle = ((void*)0);
  6320  00274C  0E00               	movlw	0
  6321  00274E  0100               	movlb	0	; () banked
  6322  002750  6F84               	movwf	_CDCDataInHandle& (0+255),b
  6323  002752  0E00               	movlw	0
  6324  002754  6F85               	movwf	(_CDCDataInHandle+1)& (0+255),b
  6325  002756                     
  6326                           ; BSR set to: 0
  6327                           ;usb_device_cdc.c: 346:     cdc_trf_state = 0;
  6328  002756  0E00               	movlw	0
  6329  002758  6E1C               	movwf	_cdc_trf_state^0,c
  6330  00275A                     
  6331                           ; BSR set to: 0
  6332  00275A  0012               	return		;funcret
  6333  00275C                     __end_of_CDCInitEP:
  6334                           	opt callstack 0
  6335                           
  6336 ;; *************** function i2_USBTransferOnePacket *****************
  6337 ;; Defined at:
  6338 ;;		line 1001 in file "usb_device.c"
  6339 ;; Parameters:    Size  Location     Type
  6340 ;;  ep              1    wreg     unsigned char 
  6341 ;;  dir             1    0[COMRAM] unsigned char 
  6342 ;;  data            2    1[COMRAM] PTR unsigned char 
  6343 ;;		 -> cdc_data_tx(64), cdc_data_rx(64), NULL(0), 
  6344 ;;  len             1    3[COMRAM] unsigned char 
  6345 ;; Auto vars:     Size  Location     Type
  6346 ;;  ep              1    8[COMRAM] unsigned char 
  6347 ;;  USBTransferO    2    9[COMRAM] PTR volatile struct __BD
  6348 ;;		 -> RAM(2047), NULL(0), BDT(48), 
  6349 ;; Return value:  Size  Location     Type
  6350 ;;                  2    0[COMRAM] PTR void 
  6351 ;; Registers used:
  6352 ;;		wreg, fsr2l, fsr2h, status,2, status,0, prodl, prodh
  6353 ;; Tracked objects:
  6354 ;;		On entry : 0/0
  6355 ;;		On exit  : 0/0
  6356 ;;		Unchanged: 0/0
  6357 ;; Data sizes:     COMRAM   BANK0   BANK1   BANK2   BANK3  BANK4h  BANK4l   BANK5   BANK6   BANK7
  6358 ;;      Params:         4       0       0       0       0       0       0       0       0       0
  6359 ;;      Locals:         3       0       0       0       0       0       0       0       0       0
  6360 ;;      Temps:          4       0       0       0       0       0       0       0       0       0
  6361 ;;      Totals:        11       0       0       0       0       0       0       0       0       0
  6362 ;;Total ram usage:       11 bytes
  6363 ;; Hardware stack levels used:    1
  6364 ;; This function calls:
  6365 ;;		Nothing
  6366 ;; This function is called by:
  6367 ;;		_CDCInitEP
  6368 ;; This function uses a non-reentrant model
  6369 ;;
  6370                           
  6371                           	psect	text31
  6372  001A74                     __ptext31:
  6373                           	opt callstack 0
  6374  001A74                     i2_USBTransferOnePacket:
  6375                           	opt callstack 22
  6376                           
  6377                           ; BSR set to: 0
  6378                           ;incstack = 0
  6379                           ;i2USBTransferOnePacket@ep stored from wreg
  6380  001A74  6E33               	movwf	i2USBTransferOnePacket@ep^0,c
  6381  001A76                     
  6382                           ;usb_device.c: 1001: void* USBTransferOnePacket(uint8_t ep,uint8_t dir,uint8_t* data,uin
      +                          t8_t len);usb_device.c: 1002: {;usb_device.c: 1003:     volatile BDT_ENTRY* handle;;usb_
      +                          device.c: 1006:     if(dir != 0)
  6383  001A76  502B               	movf	i2USBTransferOnePacket@dir^0,w,c
  6384  001A78  B4D8               	btfsc	status,2,c
  6385  001A7A  EF41  F00D         	goto	i2u170_41
  6386  001A7E  EF43  F00D         	goto	i2u170_40
  6387  001A82                     i2u170_41:
  6388  001A82  EF51  F00D         	goto	i2l2849
  6389  001A86                     i2u170_40:
  6390  001A86                     
  6391                           ;usb_device.c: 1007:     {;usb_device.c: 1009:         handle = pBDTEntryIn[ep];
  6392  001A86  5033               	movf	i2USBTransferOnePacket@ep^0,w,c
  6393  001A88  0D02               	mullw	2
  6394  001A8A  0E0F               	movlw	low _pBDTEntryIn
  6395  001A8C  24F3               	addwf	243,w,c
  6396  001A8E  6ED9               	movwf	fsr2l,c
  6397  001A90  0E00               	movlw	high _pBDTEntryIn
  6398  001A92  20F4               	addwfc	prodh,w,c
  6399  001A94  6EDA               	movwf	fsr2h,c
  6400  001A96  CFDE F034          	movff	postinc2,i2USBTransferOnePacket@handle
  6401  001A9A  CFDD F035          	movff	postdec2,i2USBTransferOnePacket@handle+1
  6402                           
  6403                           ;usb_device.c: 1010:     }
  6404  001A9E  EF5D  F00D         	goto	i2l2851
  6405  001AA2                     i2l2849:
  6406                           
  6407                           ;usb_device.c: 1012:     {;usb_device.c: 1014:         handle = pBDTEntryOut[ep];
  6408  001AA2  5033               	movf	i2USBTransferOnePacket@ep^0,w,c
  6409  001AA4  0D02               	mullw	2
  6410  001AA6  0E6A               	movlw	low _pBDTEntryOut
  6411  001AA8  24F3               	addwf	243,w,c
  6412  001AAA  6ED9               	movwf	fsr2l,c
  6413  001AAC  0E00               	movlw	high _pBDTEntryOut
  6414  001AAE  20F4               	addwfc	prodh,w,c
  6415  001AB0  6EDA               	movwf	fsr2h,c
  6416  001AB2  CFDE F034          	movff	postinc2,i2USBTransferOnePacket@handle
  6417  001AB6  CFDD F035          	movff	postdec2,i2USBTransferOnePacket@handle+1
  6418  001ABA                     i2l2851:
  6419                           
  6420                           ;usb_device.c: 1019:     if(handle == 0)
  6421  001ABA  5034               	movf	i2USBTransferOnePacket@handle^0,w,c
  6422  001ABC  1035               	iorwf	(i2USBTransferOnePacket@handle+1)^0,w,c
  6423  001ABE  A4D8               	btfss	status,2,c
  6424  001AC0  EF64  F00D         	goto	i2u171_41
  6425  001AC4  EF66  F00D         	goto	i2u171_40
  6426  001AC8                     i2u171_41:
  6427  001AC8  EF6C  F00D         	goto	i2l2857
  6428  001ACC                     i2u171_40:
  6429  001ACC                     
  6430                           ;usb_device.c: 1020:     {;usb_device.c: 1021:         return 0;
  6431  001ACC  0E00               	movlw	0
  6432  001ACE  6E2B               	movwf	?i2_USBTransferOnePacket^0,c
  6433  001AD0  0E00               	movlw	0
  6434  001AD2  6E2C               	movwf	(?i2_USBTransferOnePacket+1)^0,c
  6435  001AD4  EFD8  F00D         	goto	i2l267
  6436  001AD8                     i2l2857:
  6437                           
  6438                           ;usb_device.c: 1035:     handle->ADR = ((uint16_t)(data));
  6439  001AD8  EE20 F002          	lfsr	2,2
  6440  001ADC  5034               	movf	i2USBTransferOnePacket@handle^0,w,c
  6441  001ADE  26D9               	addwf	fsr2l,f,c
  6442  001AE0  5035               	movf	(i2USBTransferOnePacket@handle+1)^0,w,c
  6443  001AE2  22DA               	addwfc	fsr2h,f,c
  6444  001AE4  C02C  FFDE         	movff	i2USBTransferOnePacket@data,postinc2
  6445  001AE8  C02D  FFDD         	movff	i2USBTransferOnePacket@data+1,postdec2
  6446                           
  6447                           ;usb_device.c: 1036:     handle->CNT = len;
  6448  001AEC  EE20 F001          	lfsr	2,1
  6449  001AF0  5034               	movf	i2USBTransferOnePacket@handle^0,w,c
  6450  001AF2  26D9               	addwf	fsr2l,f,c
  6451  001AF4  5035               	movf	(i2USBTransferOnePacket@handle+1)^0,w,c
  6452  001AF6  22DA               	addwfc	fsr2h,f,c
  6453  001AF8  C02E  FFDF         	movff	i2USBTransferOnePacket@len,indf2
  6454  001AFC                     
  6455                           ;usb_device.c: 1037:     handle->STAT.Val &= 0x40;
  6456  001AFC  C034  FFD9         	movff	i2USBTransferOnePacket@handle,fsr2l
  6457  001B00  C035  FFDA         	movff	i2USBTransferOnePacket@handle+1,fsr2h
  6458  001B04  0E40               	movlw	64
  6459  001B06  16DF               	andwf	indf2,f,c
  6460  001B08                     
  6461                           ;usb_device.c: 1038:     handle->STAT.Val |= (0x08 & 0x08);
  6462  001B08  C034  FFD9         	movff	i2USBTransferOnePacket@handle,fsr2l
  6463  001B0C  C035  FFDA         	movff	i2USBTransferOnePacket@handle+1,fsr2h
  6464  001B10  0E00               	movlw	0
  6465  001B12  86DB               	bsf	plusw2,3,c
  6466  001B14                     
  6467                           ;usb_device.c: 1039:     handle->STAT.Val |= 0x80;
  6468  001B14  C034  FFD9         	movff	i2USBTransferOnePacket@handle,fsr2l
  6469  001B18  C035  FFDA         	movff	i2USBTransferOnePacket@handle+1,fsr2h
  6470  001B1C  0E00               	movlw	0
  6471  001B1E  8EDB               	bsf	plusw2,7,c
  6472  001B20                     
  6473                           ;usb_device.c: 1042:     if(dir != 0)
  6474  001B20  502B               	movf	i2USBTransferOnePacket@dir^0,w,c
  6475  001B22  B4D8               	btfsc	status,2,c
  6476  001B24  EF96  F00D         	goto	i2u172_41
  6477  001B28  EF98  F00D         	goto	i2u172_40
  6478  001B2C                     i2u172_41:
  6479  001B2C  EFB7  F00D         	goto	i2l2869
  6480  001B30                     i2u172_40:
  6481  001B30                     
  6482                           ;usb_device.c: 1043:     {;usb_device.c: 1045:         pBDTEntryIn[ep] = (BDT_ENTRY*)(((
      +                          uint16_t)pBDTEntryIn[ep]) ^ 0x0004);
  6483  001B30  5033               	movf	i2USBTransferOnePacket@ep^0,w,c
  6484  001B32  0D02               	mullw	2
  6485  001B34  0E0F               	movlw	low _pBDTEntryIn
  6486  001B36  24F3               	addwf	243,w,c
  6487  001B38  6ED9               	movwf	fsr2l,c
  6488  001B3A  0E00               	movlw	high _pBDTEntryIn
  6489  001B3C  20F4               	addwfc	prodh,w,c
  6490  001B3E  6EDA               	movwf	fsr2h,c
  6491  001B40  CFDE F02F          	movff	postinc2,??i2_USBTransferOnePacket
  6492  001B44  CFDD F030          	movff	postdec2,??i2_USBTransferOnePacket+1
  6493  001B48  0E04               	movlw	4
  6494  001B4A  182F               	xorwf	??i2_USBTransferOnePacket^0,w,c
  6495  001B4C  6E31               	movwf	(??i2_USBTransferOnePacket+2)^0,c
  6496  001B4E  5030               	movf	(??i2_USBTransferOnePacket+1)^0,w,c
  6497  001B50  6E32               	movwf	(??i2_USBTransferOnePacket+3)^0,c
  6498  001B52  5033               	movf	i2USBTransferOnePacket@ep^0,w,c
  6499  001B54  0D02               	mullw	2
  6500  001B56  0E0F               	movlw	low _pBDTEntryIn
  6501  001B58  24F3               	addwf	243,w,c
  6502  001B5A  6ED9               	movwf	fsr2l,c
  6503  001B5C  0E00               	movlw	high _pBDTEntryIn
  6504  001B5E  20F4               	addwfc	prodh,w,c
  6505  001B60  6EDA               	movwf	fsr2h,c
  6506  001B62  C031  FFDE         	movff	??i2_USBTransferOnePacket+2,postinc2
  6507  001B66  C032  FFDD         	movff	??i2_USBTransferOnePacket+3,postdec2
  6508                           
  6509                           ;usb_device.c: 1046:     }
  6510  001B6A  EFD4  F00D         	goto	i2l2871
  6511  001B6E                     i2l2869:
  6512                           
  6513                           ;usb_device.c: 1048:     {;usb_device.c: 1050:         pBDTEntryOut[ep] = (BDT_ENTRY*)((
      +                          (uint16_t)pBDTEntryOut[ep]) ^ 0x0004);
  6514  001B6E  5033               	movf	i2USBTransferOnePacket@ep^0,w,c
  6515  001B70  0D02               	mullw	2
  6516  001B72  0E6A               	movlw	low _pBDTEntryOut
  6517  001B74  24F3               	addwf	243,w,c
  6518  001B76  6ED9               	movwf	fsr2l,c
  6519  001B78  0E00               	movlw	high _pBDTEntryOut
  6520  001B7A  20F4               	addwfc	prodh,w,c
  6521  001B7C  6EDA               	movwf	fsr2h,c
  6522  001B7E  CFDE F02F          	movff	postinc2,??i2_USBTransferOnePacket
  6523  001B82  CFDD F030          	movff	postdec2,??i2_USBTransferOnePacket+1
  6524  001B86  0E04               	movlw	4
  6525  001B88  182F               	xorwf	??i2_USBTransferOnePacket^0,w,c
  6526  001B8A  6E31               	movwf	(??i2_USBTransferOnePacket+2)^0,c
  6527  001B8C  5030               	movf	(??i2_USBTransferOnePacket+1)^0,w,c
  6528  001B8E  6E32               	movwf	(??i2_USBTransferOnePacket+3)^0,c
  6529  001B90  5033               	movf	i2USBTransferOnePacket@ep^0,w,c
  6530  001B92  0D02               	mullw	2
  6531  001B94  0E6A               	movlw	low _pBDTEntryOut
  6532  001B96  24F3               	addwf	243,w,c
  6533  001B98  6ED9               	movwf	fsr2l,c
  6534  001B9A  0E00               	movlw	high _pBDTEntryOut
  6535  001B9C  20F4               	addwfc	prodh,w,c
  6536  001B9E  6EDA               	movwf	fsr2h,c
  6537  001BA0  C031  FFDE         	movff	??i2_USBTransferOnePacket+2,postinc2
  6538  001BA4  C032  FFDD         	movff	??i2_USBTransferOnePacket+3,postdec2
  6539  001BA8                     i2l2871:
  6540                           
  6541                           ;usb_device.c: 1052:     return (void*)handle;
  6542  001BA8  C034  F02B         	movff	i2USBTransferOnePacket@handle,?i2_USBTransferOnePacket
  6543  001BAC  C035  F02C         	movff	i2USBTransferOnePacket@handle+1,?i2_USBTransferOnePacket+1
  6544  001BB0                     i2l267:
  6545  001BB0  0012               	return		;funcret
  6546  001BB2                     __end_ofi2_USBTransferOnePacket:
  6547                           	opt callstack 0
  6548                           
  6549 ;; *************** function _USBEnableEndpoint *****************
  6550 ;; Defined at:
  6551 ;;		line 884 in file "usb_device.c"
  6552 ;; Parameters:    Size  Location     Type
  6553 ;;  ep              1    wreg     unsigned char 
  6554 ;;  options         1    8[COMRAM] unsigned char 
  6555 ;; Auto vars:     Size  Location     Type
  6556 ;;  ep              1   11[COMRAM] unsigned char 
  6557 ;;  p               2    9[COMRAM] PTR unsigned char 
  6558 ;;		 -> UEP0(1), 
  6559 ;; Return value:  Size  Location     Type
  6560 ;;                  1    wreg      void 
  6561 ;; Registers used:
  6562 ;;		wreg, fsr2l, fsr2h, status,2, status,0, prodl, prodh, cstack
  6563 ;; Tracked objects:
  6564 ;;		On entry : 0/0
  6565 ;;		On exit  : 0/0
  6566 ;;		Unchanged: 0/0
  6567 ;; Data sizes:     COMRAM   BANK0   BANK1   BANK2   BANK3  BANK4h  BANK4l   BANK5   BANK6   BANK7
  6568 ;;      Params:         1       0       0       0       0       0       0       0       0       0
  6569 ;;      Locals:         3       0       0       0       0       0       0       0       0       0
  6570 ;;      Temps:          0       0       0       0       0       0       0       0       0       0
  6571 ;;      Totals:         4       0       0       0       0       0       0       0       0       0
  6572 ;;Total ram usage:        4 bytes
  6573 ;; Hardware stack levels used:    1
  6574 ;; Hardware stack levels required when called:    1
  6575 ;; This function calls:
  6576 ;;		_USBConfigureEndpoint
  6577 ;; This function is called by:
  6578 ;;		_CDCInitEP
  6579 ;; This function uses a non-reentrant model
  6580 ;;
  6581                           
  6582                           	psect	text32
  6583  002866                     __ptext32:
  6584                           	opt callstack 0
  6585  002866                     _USBEnableEndpoint:
  6586                           	opt callstack 21
  6587                           
  6588                           ;incstack = 0
  6589                           ;USBEnableEndpoint@ep stored from wreg
  6590  002866  6E36               	movwf	USBEnableEndpoint@ep^0,c
  6591  002868                     
  6592                           ;usb_device.c: 884: void USBEnableEndpoint(uint8_t ep, uint8_t options);usb_device.c: 88
      +                          5: {;usb_device.c: 886:     unsigned char* p;;usb_device.c: 890:     if(options & 0x04)
  6593  002868  A433               	btfss	USBEnableEndpoint@options^0,2,c
  6594  00286A  EF39  F014         	goto	i2u168_41
  6595  00286E  EF3B  F014         	goto	i2u168_40
  6596  002872                     i2u168_41:
  6597  002872  EF40  F014         	goto	i2l2837
  6598  002876                     i2u168_40:
  6599  002876                     
  6600                           ;usb_device.c: 891:     {;usb_device.c: 892:         USBConfigureEndpoint(ep, 0);
  6601  002876  0E00               	movlw	0
  6602  002878  6E2B               	movwf	USBConfigureEndpoint@direction^0,c
  6603  00287A  5036               	movf	USBEnableEndpoint@ep^0,w,c
  6604  00287C  EC11  F012         	call	_USBConfigureEndpoint
  6605  002880                     i2l2837:
  6606                           
  6607                           ;usb_device.c: 894:     if(options & 0x02)
  6608  002880  A233               	btfss	USBEnableEndpoint@options^0,1,c
  6609  002882  EF45  F014         	goto	i2u169_41
  6610  002886  EF47  F014         	goto	i2u169_40
  6611  00288A                     i2u169_41:
  6612  00288A  EF4C  F014         	goto	i2l2841
  6613  00288E                     i2u169_40:
  6614  00288E                     
  6615                           ;usb_device.c: 895:     {;usb_device.c: 896:         USBConfigureEndpoint(ep, 1);
  6616  00288E  0E01               	movlw	1
  6617  002890  6E2B               	movwf	USBConfigureEndpoint@direction^0,c
  6618  002892  5036               	movf	USBEnableEndpoint@ep^0,w,c
  6619  002894  EC11  F012         	call	_USBConfigureEndpoint
  6620  002898                     i2l2841:
  6621                           
  6622                           ;usb_device.c: 905:         p = (unsigned char*)(&UEP0+ep);
  6623  002898  0E70               	movlw	112
  6624  00289A  2436               	addwf	USBEnableEndpoint@ep^0,w,c
  6625  00289C  6E34               	movwf	USBEnableEndpoint@p^0,c
  6626  00289E  6A35               	clrf	(USBEnableEndpoint@p+1)^0,c
  6627  0028A0  0E0F               	movlw	15
  6628  0028A2  2235               	addwfc	(USBEnableEndpoint@p+1)^0,f,c
  6629  0028A4                     
  6630                           ;usb_device.c: 907:     *p = options;
  6631  0028A4  C034  FFD9         	movff	USBEnableEndpoint@p,fsr2l
  6632  0028A8  C035  FFDA         	movff	USBEnableEndpoint@p+1,fsr2h
  6633  0028AC  C033  FFDF         	movff	USBEnableEndpoint@options,indf2
  6634  0028B0  0012               	return		;funcret
  6635  0028B2                     __end_of_USBEnableEndpoint:
  6636                           	opt callstack 0
  6637                           
  6638 ;; *************** function _USBConfigureEndpoint *****************
  6639 ;; Defined at:
  6640 ;;		line 1549 in file "usb_device.c"
  6641 ;; Parameters:    Size  Location     Type
  6642 ;;  EPNum           1    wreg     unsigned char 
  6643 ;;  direction       1    0[COMRAM] unsigned char 
  6644 ;; Auto vars:     Size  Location     Type
  6645 ;;  EPNum           1    5[COMRAM] unsigned char 
  6646 ;;  handle          2    6[COMRAM] PTR volatile struct __BD
  6647 ;;		 -> BDT(48), 
  6648 ;; Return value:  Size  Location     Type
  6649 ;;                  1    wreg      void 
  6650 ;; Registers used:
  6651 ;;		wreg, fsr2l, fsr2h, status,2, status,0, prodl, prodh
  6652 ;; Tracked objects:
  6653 ;;		On entry : 0/0
  6654 ;;		On exit  : 0/0
  6655 ;;		Unchanged: 0/0
  6656 ;; Data sizes:     COMRAM   BANK0   BANK1   BANK2   BANK3  BANK4h  BANK4l   BANK5   BANK6   BANK7
  6657 ;;      Params:         1       0       0       0       0       0       0       0       0       0
  6658 ;;      Locals:         3       0       0       0       0       0       0       0       0       0
  6659 ;;      Temps:          4       0       0       0       0       0       0       0       0       0
  6660 ;;      Totals:         8       0       0       0       0       0       0       0       0       0
  6661 ;;Total ram usage:        8 bytes
  6662 ;; Hardware stack levels used:    1
  6663 ;; This function calls:
  6664 ;;		Nothing
  6665 ;; This function is called by:
  6666 ;;		_USBEnableEndpoint
  6667 ;; This function uses a non-reentrant model
  6668 ;;
  6669                           
  6670                           	psect	text33
  6671  002422                     __ptext33:
  6672                           	opt callstack 0
  6673  002422                     _USBConfigureEndpoint:
  6674                           	opt callstack 21
  6675                           
  6676                           ;incstack = 0
  6677                           ;USBConfigureEndpoint@EPNum stored from wreg
  6678  002422  6E30               	movwf	USBConfigureEndpoint@EPNum^0,c
  6679  002424                     
  6680                           ;usb_device.c: 1549: static void USBConfigureEndpoint(uint8_t EPNum, uint8_t direction);
      +                          usb_device.c: 1550: {;usb_device.c: 1551:     volatile BDT_ENTRY* handle;;usb_device.c: 
      +                          1555:     handle = (volatile BDT_ENTRY*)&BDT[0];
  6681  002424  0E00               	movlw	0
  6682  002426  6E31               	movwf	USBConfigureEndpoint@handle^0,c
  6683  002428  0E04               	movlw	4
  6684  00242A  6E32               	movwf	(USBConfigureEndpoint@handle+1)^0,c
  6685  00242C                     
  6686                           ;usb_device.c: 1556:     handle += (4*EPNum+2*direction+0u);
  6687  00242C  502B               	movf	USBConfigureEndpoint@direction^0,w,c
  6688  00242E  6E2C               	movwf	??_USBConfigureEndpoint^0,c
  6689  002430  6A2D               	clrf	(??_USBConfigureEndpoint+1)^0,c
  6690  002432  90D8               	bcf	status,0,c
  6691  002434  362C               	rlcf	??_USBConfigureEndpoint^0,f,c
  6692  002436  362D               	rlcf	(??_USBConfigureEndpoint+1)^0,f,c
  6693  002438  5030               	movf	USBConfigureEndpoint@EPNum^0,w,c
  6694  00243A  6E2E               	movwf	(??_USBConfigureEndpoint+2)^0,c
  6695  00243C  6A2F               	clrf	(??_USBConfigureEndpoint+3)^0,c
  6696  00243E  90D8               	bcf	status,0,c
  6697  002440  362E               	rlcf	(??_USBConfigureEndpoint+2)^0,f,c
  6698  002442  362F               	rlcf	(??_USBConfigureEndpoint+3)^0,f,c
  6699  002444  90D8               	bcf	status,0,c
  6700  002446  362E               	rlcf	(??_USBConfigureEndpoint+2)^0,f,c
  6701  002448  362F               	rlcf	(??_USBConfigureEndpoint+3)^0,f,c
  6702  00244A  502C               	movf	??_USBConfigureEndpoint^0,w,c
  6703  00244C  262E               	addwf	(??_USBConfigureEndpoint+2)^0,f,c
  6704  00244E  502D               	movf	(??_USBConfigureEndpoint+1)^0,w,c
  6705  002450  222F               	addwfc	(??_USBConfigureEndpoint+3)^0,f,c
  6706  002452  90D8               	bcf	status,0,c
  6707  002454  362E               	rlcf	(??_USBConfigureEndpoint+2)^0,f,c
  6708  002456  362F               	rlcf	(??_USBConfigureEndpoint+3)^0,f,c
  6709  002458  90D8               	bcf	status,0,c
  6710  00245A  362E               	rlcf	(??_USBConfigureEndpoint+2)^0,f,c
  6711  00245C  362F               	rlcf	(??_USBConfigureEndpoint+3)^0,f,c
  6712  00245E  502E               	movf	(??_USBConfigureEndpoint+2)^0,w,c
  6713  002460  2631               	addwf	USBConfigureEndpoint@handle^0,f,c
  6714  002462  502F               	movf	(??_USBConfigureEndpoint+3)^0,w,c
  6715  002464  2232               	addwfc	(USBConfigureEndpoint@handle+1)^0,f,c
  6716  002466                     
  6717                           ;usb_device.c: 1558:     handle->STAT.UOWN = 0;
  6718  002466  C031  FFD9         	movff	USBConfigureEndpoint@handle,fsr2l
  6719  00246A  C032  FFDA         	movff	USBConfigureEndpoint@handle+1,fsr2h
  6720  00246E  9EDF               	bcf	indf2,7,c
  6721  002470                     
  6722                           ;usb_device.c: 1563:     if(direction == 0)
  6723  002470  502B               	movf	USBConfigureEndpoint@direction^0,w,c
  6724  002472  A4D8               	btfss	status,2,c
  6725  002474  EF3E  F012         	goto	i2u167_41
  6726  002478  EF40  F012         	goto	i2u167_40
  6727  00247C                     i2u167_41:
  6728  00247C  EF4E  F012         	goto	i2l2827
  6729  002480                     i2u167_40:
  6730  002480                     
  6731                           ;usb_device.c: 1564:     {;usb_device.c: 1565:         pBDTEntryOut[EPNum] = handle;
  6732  002480  5030               	movf	USBConfigureEndpoint@EPNum^0,w,c
  6733  002482  0D02               	mullw	2
  6734  002484  0E6A               	movlw	low _pBDTEntryOut
  6735  002486  24F3               	addwf	243,w,c
  6736  002488  6ED9               	movwf	fsr2l,c
  6737  00248A  0E00               	movlw	high _pBDTEntryOut
  6738  00248C  20F4               	addwfc	prodh,w,c
  6739  00248E  6EDA               	movwf	fsr2h,c
  6740  002490  C031  FFDE         	movff	USBConfigureEndpoint@handle,postinc2
  6741  002494  C032  FFDD         	movff	USBConfigureEndpoint@handle+1,postdec2
  6742                           
  6743                           ;usb_device.c: 1566:     }
  6744  002498  EF5A  F012         	goto	i2l2829
  6745  00249C                     i2l2827:
  6746                           
  6747                           ;usb_device.c: 1568:     {;usb_device.c: 1569:         pBDTEntryIn[EPNum] = handle;
  6748  00249C  5030               	movf	USBConfigureEndpoint@EPNum^0,w,c
  6749  00249E  0D02               	mullw	2
  6750  0024A0  0E0F               	movlw	low _pBDTEntryIn
  6751  0024A2  24F3               	addwf	243,w,c
  6752  0024A4  6ED9               	movwf	fsr2l,c
  6753  0024A6  0E00               	movlw	high _pBDTEntryIn
  6754  0024A8  20F4               	addwfc	prodh,w,c
  6755  0024AA  6EDA               	movwf	fsr2h,c
  6756  0024AC  C031  FFDE         	movff	USBConfigureEndpoint@handle,postinc2
  6757  0024B0  C032  FFDD         	movff	USBConfigureEndpoint@handle+1,postdec2
  6758  0024B4                     i2l2829:
  6759                           
  6760                           ;usb_device.c: 1573:         handle->STAT.DTS = 0;
  6761  0024B4  C031  FFD9         	movff	USBConfigureEndpoint@handle,fsr2l
  6762  0024B8  C032  FFDA         	movff	USBConfigureEndpoint@handle+1,fsr2h
  6763  0024BC  9CDF               	bcf	indf2,6,c
  6764  0024BE                     
  6765                           ;usb_device.c: 1574:         (handle+1)->STAT.DTS = 1;
  6766  0024BE  EE20 F004          	lfsr	2,4
  6767  0024C2  5031               	movf	USBConfigureEndpoint@handle^0,w,c
  6768  0024C4  26D9               	addwf	fsr2l,f,c
  6769  0024C6  5032               	movf	(USBConfigureEndpoint@handle+1)^0,w,c
  6770  0024C8  22DA               	addwfc	fsr2h,f,c
  6771  0024CA  8CDF               	bsf	indf2,6,c
  6772  0024CC  0012               	return		;funcret
  6773  0024CE                     __end_of_USBConfigureEndpoint:
  6774                           	opt callstack 0
  6775                           
  6776 ;; *************** function _USBCtrlTrfOutHandler *****************
  6777 ;; Defined at:
  6778 ;;		line 2544 in file "usb_device.c"
  6779 ;; Parameters:    Size  Location     Type
  6780 ;;		None
  6781 ;; Auto vars:     Size  Location     Type
  6782 ;;		None
  6783 ;; Return value:  Size  Location     Type
  6784 ;;                  1    wreg      void 
  6785 ;; Registers used:
  6786 ;;		wreg, fsr1l, fsr1h, fsr2l, fsr2h, status,2, status,0, cstack
  6787 ;; Tracked objects:
  6788 ;;		On entry : 0/0
  6789 ;;		On exit  : 0/0
  6790 ;;		Unchanged: 0/0
  6791 ;; Data sizes:     COMRAM   BANK0   BANK1   BANK2   BANK3  BANK4h  BANK4l   BANK5   BANK6   BANK7
  6792 ;;      Params:         0       0       0       0       0       0       0       0       0       0
  6793 ;;      Locals:         0       0       0       0       0       0       0       0       0       0
  6794 ;;      Temps:          0       0       0       0       0       0       0       0       0       0
  6795 ;;      Totals:         0       0       0       0       0       0       0       0       0       0
  6796 ;;Total ram usage:        0 bytes
  6797 ;; Hardware stack levels used:    1
  6798 ;; Hardware stack levels required when called:    2
  6799 ;; This function calls:
  6800 ;;		_USBCtrlTrfRxService
  6801 ;; This function is called by:
  6802 ;;		_USBCtrlEPService
  6803 ;; This function uses a non-reentrant model
  6804 ;;
  6805                           
  6806                           	psect	text34
  6807  002684                     __ptext34:
  6808                           	opt callstack 0
  6809  002684                     _USBCtrlTrfOutHandler:
  6810                           	opt callstack 21
  6811  002684                     
  6812                           ;usb_device.c: 2546:     if(controlTransferState == 2)
  6813  002684  0E02               	movlw	2
  6814  002686  1826               	xorwf	_controlTransferState^0,w,c	;volatile
  6815  002688  A4D8               	btfss	status,2,c
  6816  00268A  EF49  F013         	goto	i2u241_41
  6817  00268E  EF4B  F013         	goto	i2u241_40
  6818  002692                     i2u241_41:
  6819  002692  EF4F  F013         	goto	i2l3457
  6820  002696                     i2u241_40:
  6821  002696                     
  6822                           ;usb_device.c: 2547:     {;usb_device.c: 2548:         USBCtrlTrfRxService();
  6823  002696  EC99  F00C         	call	_USBCtrlTrfRxService	;wreg free
  6824                           
  6825                           ;usb_device.c: 2549:     }
  6826  00269A  EF7B  F013         	goto	i2l416
  6827  00269E                     i2l3457:
  6828                           
  6829                           ;usb_device.c: 2551:     {;usb_device.c: 2554:         controlTransferState = 0;
  6830  00269E  0E00               	movlw	0
  6831  0026A0  6E26               	movwf	_controlTransferState^0,c	;volatile
  6832                           
  6833                           ;usb_device.c: 2561:         if(BothEP0OutUOWNsSet == 0)
  6834  0026A2  5022               	movf	_BothEP0OutUOWNsSet^0,w,c	;volatile
  6835  0026A4  A4D8               	btfss	status,2,c
  6836  0026A6  EF57  F013         	goto	i2u242_41
  6837  0026AA  EF59  F013         	goto	i2u242_40
  6838  0026AE                     i2u242_41:
  6839  0026AE  EF79  F013         	goto	i2l3465
  6840  0026B2                     i2u242_40:
  6841  0026B2                     
  6842                           ;usb_device.c: 2562:         {;usb_device.c: 2563:             pBDTEntryEP0OutNext->CNT 
      +                          = 32;
  6843  0026B2  EE20 F001          	lfsr	2,1
  6844  0026B6  5017               	movf	_pBDTEntryEP0OutNext^0,w,c
  6845  0026B8  26D9               	addwf	fsr2l,f,c
  6846  0026BA  5018               	movf	(_pBDTEntryEP0OutNext+1)^0,w,c
  6847  0026BC  22DA               	addwfc	fsr2h,f,c
  6848  0026BE  0E20               	movlw	32
  6849  0026C0  6EDF               	movwf	indf2,c
  6850                           
  6851                           ;usb_device.c: 2564:             pBDTEntryEP0OutNext->ADR = ((uint16_t)(&SetupPkt));
  6852  0026C2  EE20 F002          	lfsr	2,2
  6853  0026C6  5017               	movf	_pBDTEntryEP0OutNext^0,w,c
  6854  0026C8  26D9               	addwf	fsr2l,f,c
  6855  0026CA  5018               	movf	(_pBDTEntryEP0OutNext+1)^0,w,c
  6856  0026CC  22DA               	addwfc	fsr2h,f,c
  6857  0026CE  0E30               	movlw	48
  6858  0026D0  6EDE               	movwf	postinc2,c
  6859  0026D2  0E04               	movlw	4
  6860  0026D4  6EDD               	movwf	postdec2,c
  6861  0026D6                     
  6862                           ;usb_device.c: 2565:             pBDTEntryEP0OutNext->STAT.Val = 0x00|(0x08 & 0x08)|0x04
      +                          ;
  6863  0026D6  C017  FFD9         	movff	_pBDTEntryEP0OutNext,fsr2l
  6864  0026DA  C018  FFDA         	movff	_pBDTEntryEP0OutNext+1,fsr2h
  6865  0026DE  0E0C               	movlw	12
  6866  0026E0  6EDF               	movwf	indf2,c
  6867  0026E2                     
  6868                           ;usb_device.c: 2566:             pBDTEntryEP0OutNext->STAT.Val |= 0x80;
  6869  0026E2  C017  FFD9         	movff	_pBDTEntryEP0OutNext,fsr2l
  6870  0026E6  C018  FFDA         	movff	_pBDTEntryEP0OutNext+1,fsr2h
  6871  0026EA  0E00               	movlw	0
  6872  0026EC  8EDB               	bsf	plusw2,7,c
  6873                           
  6874                           ;usb_device.c: 2567:         }
  6875  0026EE  EF7B  F013         	goto	i2l416
  6876  0026F2                     i2l3465:
  6877                           
  6878                           ;usb_device.c: 2569:         {;usb_device.c: 2570:                 BothEP0OutUOWNsSet = 
      +                          0;
  6879  0026F2  0E00               	movlw	0
  6880  0026F4  6E22               	movwf	_BothEP0OutUOWNsSet^0,c	;volatile
  6881  0026F6                     i2l416:
  6882  0026F6  0012               	return		;funcret
  6883  0026F8                     __end_of_USBCtrlTrfOutHandler:
  6884                           	opt callstack 0
  6885                           
  6886 ;; *************** function _USBCtrlTrfRxService *****************
  6887 ;; Defined at:
  6888 ;;		line 1858 in file "usb_device.c"
  6889 ;; Parameters:    Size  Location     Type
  6890 ;;		None
  6891 ;; Auto vars:     Size  Location     Type
  6892 ;;  byteToRead      1    1[COMRAM] unsigned char 
  6893 ;;  i               1    0[COMRAM] unsigned char 
  6894 ;; Return value:  Size  Location     Type
  6895 ;;                  1    wreg      void 
  6896 ;; Registers used:
  6897 ;;		wreg, fsr1l, fsr1h, fsr2l, fsr2h, status,2, status,0, cstack
  6898 ;; Tracked objects:
  6899 ;;		On entry : 0/0
  6900 ;;		On exit  : 0/0
  6901 ;;		Unchanged: 0/0
  6902 ;; Data sizes:     COMRAM   BANK0   BANK1   BANK2   BANK3  BANK4h  BANK4l   BANK5   BANK6   BANK7
  6903 ;;      Params:         0       0       0       0       0       0       0       0       0       0
  6904 ;;      Locals:         2       0       0       0       0       0       0       0       0       0
  6905 ;;      Temps:          0       0       0       0       0       0       0       0       0       0
  6906 ;;      Totals:         2       0       0       0       0       0       0       0       0       0
  6907 ;;Total ram usage:        2 bytes
  6908 ;; Hardware stack levels used:    1
  6909 ;; Hardware stack levels required when called:    1
  6910 ;; This function calls:
  6911 ;;		_USBCtrlEPAllowStatusStage
  6912 ;; This function is called by:
  6913 ;;		_USBCtrlTrfOutHandler
  6914 ;; This function uses a non-reentrant model
  6915 ;;
  6916                           
  6917                           	psect	text35
  6918  001932                     __ptext35:
  6919                           	opt callstack 0
  6920  001932                     _USBCtrlTrfRxService:
  6921                           	opt callstack 21
  6922  001932                     
  6923                           ;usb_device.c: 1860:     uint8_t byteToRead;;usb_device.c: 1861:     uint8_t i;;usb_devi
      +                          ce.c: 1865:     byteToRead = pBDTEntryEP0OutCurrent->CNT;
  6924  001932  EE20 F001          	lfsr	2,1
  6925  001936  5019               	movf	_pBDTEntryEP0OutCurrent^0,w,c
  6926  001938  26D9               	addwf	fsr2l,f,c
  6927  00193A  501A               	movf	(_pBDTEntryEP0OutCurrent+1)^0,w,c
  6928  00193C  22DA               	addwfc	fsr2h,f,c
  6929  00193E  50DF               	movf	indf2,w,c
  6930  001940  6E2C               	movwf	USBCtrlTrfRxService@byteToRead^0,c
  6931  001942                     
  6932                           ;usb_device.c: 1871:     if(byteToRead > outPipes[0].wCount.Val)
  6933  001942  502C               	movf	USBCtrlTrfRxService@byteToRead^0,w,c
  6934  001944  5C05               	subwf	(_outPipes+4)^0,w,c	;volatile
  6935  001946  0E00               	movlw	0
  6936  001948  5806               	subwfb	(_outPipes+5)^0,w,c	;volatile
  6937  00194A  B0D8               	btfsc	status,0,c
  6938  00194C  EFAA  F00C         	goto	i2u234_41
  6939  001950  EFAC  F00C         	goto	i2u234_40
  6940  001954                     i2u234_41:
  6941  001954  EFAE  F00C         	goto	i2l3333
  6942  001958                     i2u234_40:
  6943  001958                     
  6944                           ;usb_device.c: 1872:     {;usb_device.c: 1873:         byteToRead = outPipes[0].wCount.V
      +                          al;
  6945  001958  C005  F02C         	movff	_outPipes+4,USBCtrlTrfRxService@byteToRead	;volatile
  6946  00195C                     i2l3333:
  6947                           
  6948                           ;usb_device.c: 1876:     outPipes[0].wCount.Val -= byteToRead;
  6949  00195C  502C               	movf	USBCtrlTrfRxService@byteToRead^0,w,c
  6950  00195E  5E05               	subwf	(_outPipes+4)^0,f,c	;volatile
  6951  001960  0E00               	movlw	0
  6952  001962  5A06               	subwfb	(_outPipes+5)^0,f,c	;volatile
  6953  001964                     
  6954                           ;usb_device.c: 1880:     for(i=0;i<byteToRead;i++)
  6955  001964  0E00               	movlw	0
  6956  001966  6E2B               	movwf	USBCtrlTrfRxService@i^0,c
  6957  001968  EFC5  F00C         	goto	i2l3343
  6958  00196C                     i2l3337:
  6959                           
  6960                           ;usb_device.c: 1881:     {;usb_device.c: 1882:         *outPipes[0].pDst.bRam++ = CtrlTr
      +                          fData[i];
  6961  00196C  0E50               	movlw	80
  6962  00196E  242B               	addwf	USBCtrlTrfRxService@i^0,w,c
  6963  001970  6ED9               	movwf	fsr2l,c
  6964  001972  6ADA               	clrf	fsr2h,c
  6965  001974  0E04               	movlw	4
  6966  001976  22DA               	addwfc	fsr2h,f,c
  6967  001978  C001  FFE1         	movff	_outPipes,fsr1l	;volatile
  6968  00197C  C002  FFE2         	movff	_outPipes+1,fsr1h	;volatile
  6969  001980  CFDF FFE7          	movff	indf2,indf1
  6970  001984  4A01               	infsnz	_outPipes^0,f,c	;volatile
  6971  001986  2A02               	incf	(_outPipes+1)^0,f,c	;volatile
  6972  001988                     
  6973                           ;usb_device.c: 1883:     }
  6974  001988  2A2B               	incf	USBCtrlTrfRxService@i^0,f,c
  6975  00198A                     i2l3343:
  6976  00198A  502C               	movf	USBCtrlTrfRxService@byteToRead^0,w,c
  6977  00198C  5C2B               	subwf	USBCtrlTrfRxService@i^0,w,c
  6978  00198E  A0D8               	btfss	status,0,c
  6979  001990  EFCC  F00C         	goto	i2u235_41
  6980  001994  EFCE  F00C         	goto	i2u235_40
  6981  001998                     i2u235_41:
  6982  001998  EFB6  F00C         	goto	i2l3337
  6983  00199C                     i2u235_40:
  6984  00199C                     
  6985                           ;usb_device.c: 1887:     if(outPipes[0].wCount.Val > 0)
  6986  00199C  5005               	movf	(_outPipes+4)^0,w,c	;volatile
  6987  00199E  1006               	iorwf	(_outPipes+5)^0,w,c	;volatile
  6988  0019A0  B4D8               	btfsc	status,2,c
  6989  0019A2  EFD5  F00C         	goto	i2u236_41
  6990  0019A6  EFD7  F00C         	goto	i2u236_40
  6991  0019AA                     i2u236_41:
  6992  0019AA  EF10  F00D         	goto	i2l3359
  6993  0019AE                     i2u236_40:
  6994  0019AE                     
  6995                           ;usb_device.c: 1888:     {;usb_device.c: 1889:         pBDTEntryEP0OutNext->CNT = 32;
  6996  0019AE  EE20 F001          	lfsr	2,1
  6997  0019B2  5017               	movf	_pBDTEntryEP0OutNext^0,w,c
  6998  0019B4  26D9               	addwf	fsr2l,f,c
  6999  0019B6  5018               	movf	(_pBDTEntryEP0OutNext+1)^0,w,c
  7000  0019B8  22DA               	addwfc	fsr2h,f,c
  7001  0019BA  0E20               	movlw	32
  7002  0019BC  6EDF               	movwf	indf2,c
  7003                           
  7004                           ;usb_device.c: 1890:         pBDTEntryEP0OutNext->ADR = ((uint16_t)(&CtrlTrfData));
  7005  0019BE  EE20 F002          	lfsr	2,2
  7006  0019C2  5017               	movf	_pBDTEntryEP0OutNext^0,w,c
  7007  0019C4  26D9               	addwf	fsr2l,f,c
  7008  0019C6  5018               	movf	(_pBDTEntryEP0OutNext+1)^0,w,c
  7009  0019C8  22DA               	addwfc	fsr2h,f,c
  7010  0019CA  0E50               	movlw	80
  7011  0019CC  6EDE               	movwf	postinc2,c
  7012  0019CE  0E04               	movlw	4
  7013  0019D0  6EDD               	movwf	postdec2,c
  7014  0019D2                     
  7015                           ;usb_device.c: 1891:         if(pBDTEntryEP0OutCurrent->STAT.DTS == 0)
  7016  0019D2  C019  FFD9         	movff	_pBDTEntryEP0OutCurrent,fsr2l
  7017  0019D6  C01A  FFDA         	movff	_pBDTEntryEP0OutCurrent+1,fsr2h
  7018  0019DA  BCDF               	btfsc	indf2,6,c
  7019  0019DC  EFF2  F00C         	goto	i2u237_41
  7020  0019E0  EFF4  F00C         	goto	i2u237_40
  7021  0019E4                     i2u237_41:
  7022  0019E4  EF02  F00D         	goto	i2l3355
  7023  0019E8                     i2u237_40:
  7024  0019E8                     
  7025                           ;usb_device.c: 1892:         {;usb_device.c: 1893:             pBDTEntryEP0OutNext->STAT
      +                          .Val = 0x40|(0x08 & 0x08);
  7026  0019E8  C017  FFD9         	movff	_pBDTEntryEP0OutNext,fsr2l
  7027  0019EC  C018  FFDA         	movff	_pBDTEntryEP0OutNext+1,fsr2h
  7028  0019F0  0E48               	movlw	72
  7029  0019F2  6EDF               	movwf	indf2,c
  7030  0019F4                     
  7031                           ;usb_device.c: 1894:             pBDTEntryEP0OutNext->STAT.Val |= 0x80;
  7032  0019F4  C017  FFD9         	movff	_pBDTEntryEP0OutNext,fsr2l
  7033  0019F8  C018  FFDA         	movff	_pBDTEntryEP0OutNext+1,fsr2h
  7034  0019FC  0E00               	movlw	0
  7035  0019FE  8EDB               	bsf	plusw2,7,c
  7036                           
  7037                           ;usb_device.c: 1895:         }
  7038  001A00  EF39  F00D         	goto	i2l349
  7039  001A04                     i2l3355:
  7040                           
  7041                           ;usb_device.c: 1897:         {;usb_device.c: 1898:             pBDTEntryEP0OutNext->STAT
      +                          .Val = 0x00|(0x08 & 0x08);
  7042  001A04  C017  FFD9         	movff	_pBDTEntryEP0OutNext,fsr2l
  7043  001A08  C018  FFDA         	movff	_pBDTEntryEP0OutNext+1,fsr2h
  7044  001A0C  0E08               	movlw	8
  7045  001A0E  6EDF               	movwf	indf2,c
  7046  001A10                     
  7047                           ;usb_device.c: 1899:             pBDTEntryEP0OutNext->STAT.Val |= 0x80;
  7048  001A10  C017  FFD9         	movff	_pBDTEntryEP0OutNext,fsr2l
  7049  001A14  C018  FFDA         	movff	_pBDTEntryEP0OutNext+1,fsr2h
  7050  001A18  0E00               	movlw	0
  7051  001A1A  8EDB               	bsf	plusw2,7,c
  7052  001A1C  EF39  F00D         	goto	i2l349
  7053  001A20                     i2l3359:
  7054                           
  7055                           ;usb_device.c: 1903:     {;usb_device.c: 1907:         pBDTEntryEP0OutNext->CNT = 32;
  7056  001A20  EE20 F001          	lfsr	2,1
  7057  001A24  5017               	movf	_pBDTEntryEP0OutNext^0,w,c
  7058  001A26  26D9               	addwf	fsr2l,f,c
  7059  001A28  5018               	movf	(_pBDTEntryEP0OutNext+1)^0,w,c
  7060  001A2A  22DA               	addwfc	fsr2h,f,c
  7061  001A2C  0E20               	movlw	32
  7062  001A2E  6EDF               	movwf	indf2,c
  7063                           
  7064                           ;usb_device.c: 1908:         pBDTEntryEP0OutNext->ADR = ((uint16_t)(&SetupPkt));
  7065  001A30  EE20 F002          	lfsr	2,2
  7066  001A34  5017               	movf	_pBDTEntryEP0OutNext^0,w,c
  7067  001A36  26D9               	addwf	fsr2l,f,c
  7068  001A38  5018               	movf	(_pBDTEntryEP0OutNext+1)^0,w,c
  7069  001A3A  22DA               	addwfc	fsr2h,f,c
  7070  001A3C  0E30               	movlw	48
  7071  001A3E  6EDE               	movwf	postinc2,c
  7072  001A40  0E04               	movlw	4
  7073  001A42  6EDD               	movwf	postdec2,c
  7074  001A44                     
  7075                           ;usb_device.c: 1912:         pBDTEntryEP0OutNext->STAT.Val = 0x04;
  7076  001A44  C017  FFD9         	movff	_pBDTEntryEP0OutNext,fsr2l
  7077  001A48  C018  FFDA         	movff	_pBDTEntryEP0OutNext+1,fsr2h
  7078  001A4C  0E04               	movlw	4
  7079  001A4E  6EDF               	movwf	indf2,c
  7080  001A50                     
  7081                           ;usb_device.c: 1913:         pBDTEntryEP0OutNext->STAT.Val |= 0x80;
  7082  001A50  C017  FFD9         	movff	_pBDTEntryEP0OutNext,fsr2l
  7083  001A54  C018  FFDA         	movff	_pBDTEntryEP0OutNext+1,fsr2h
  7084  001A58  0E00               	movlw	0
  7085  001A5A  8EDB               	bsf	plusw2,7,c
  7086  001A5C  9E04               	bcf	(_outPipes+3)^0,7,c	;volatile
  7087  001A5E                     
  7088                           ;usb_device.c: 1947:         if(USBDeferStatusStagePacket == 0)
  7089  001A5E  5020               	movf	_USBDeferStatusStagePacket^0,w,c	;volatile
  7090  001A60  A4D8               	btfss	status,2,c
  7091  001A62  EF35  F00D         	goto	i2u238_41
  7092  001A66  EF37  F00D         	goto	i2u238_40
  7093  001A6A                     i2u238_41:
  7094  001A6A  EF39  F00D         	goto	i2l349
  7095  001A6E                     i2u238_40:
  7096  001A6E                     
  7097                           ;usb_device.c: 1948:         {;usb_device.c: 1949:             USBCtrlEPAllowStatusStage
      +                          ();
  7098  001A6E  EC73  F010         	call	_USBCtrlEPAllowStatusStage	;wreg free
  7099  001A72                     i2l349:
  7100  001A72  0012               	return		;funcret
  7101  001A74                     __end_of_USBCtrlTrfRxService:
  7102                           	opt callstack 0
  7103                           
  7104 ;; *************** function _USBCtrlEPAllowStatusStage *****************
  7105 ;; Defined at:
  7106 ;;		line 1422 in file "usb_device.c"
  7107 ;; Parameters:    Size  Location     Type
  7108 ;;		None
  7109 ;; Auto vars:     Size  Location     Type
  7110 ;;		None
  7111 ;; Return value:  Size  Location     Type
  7112 ;;                  1    wreg      void 
  7113 ;; Registers used:
  7114 ;;		wreg, fsr2l, fsr2h, status,2, status,0
  7115 ;; Tracked objects:
  7116 ;;		On entry : 0/0
  7117 ;;		On exit  : 0/0
  7118 ;;		Unchanged: 0/0
  7119 ;; Data sizes:     COMRAM   BANK0   BANK1   BANK2   BANK3  BANK4h  BANK4l   BANK5   BANK6   BANK7
  7120 ;;      Params:         0       0       0       0       0       0       0       0       0       0
  7121 ;;      Locals:         0       0       0       0       0       0       0       0       0       0
  7122 ;;      Temps:          0       0       0       0       0       0       0       0       0       0
  7123 ;;      Totals:         0       0       0       0       0       0       0       0       0       0
  7124 ;;Total ram usage:        0 bytes
  7125 ;; Hardware stack levels used:    1
  7126 ;; This function calls:
  7127 ;;		Nothing
  7128 ;; This function is called by:
  7129 ;;		_USBDeviceTasks
  7130 ;;		_USBCtrlEPServiceComplete
  7131 ;;		_USBCtrlTrfRxService
  7132 ;; This function uses a non-reentrant model
  7133 ;;
  7134                           
  7135                           	psect	text36
  7136  0020E6                     __ptext36:
  7137                           	opt callstack 0
  7138  0020E6                     _USBCtrlEPAllowStatusStage:
  7139                           	opt callstack 21
  7140  0020E6                     
  7141                           ;usb_device.c: 1429:     if(USBStatusStageEnabledFlag1 == 0)
  7142  0020E6  501F               	movf	_USBStatusStageEnabledFlag1^0,w,c	;volatile
  7143  0020E8  A4D8               	btfss	status,2,c
  7144  0020EA  EF79  F010         	goto	i2u190_41
  7145  0020EE  EF7B  F010         	goto	i2u190_40
  7146  0020F2                     i2u190_41:
  7147  0020F2  EFEA  F010         	goto	i2l297
  7148  0020F6                     i2u190_40:
  7149  0020F6                     
  7150                           ;usb_device.c: 1430:     {;usb_device.c: 1431:         USBStatusStageEnabledFlag1 = 1;
  7151  0020F6  0E01               	movlw	1
  7152  0020F8  6E1F               	movwf	_USBStatusStageEnabledFlag1^0,c	;volatile
  7153                           
  7154                           ;usb_device.c: 1432:         if(USBStatusStageEnabledFlag2 == 0)
  7155  0020FA  501E               	movf	_USBStatusStageEnabledFlag2^0,w,c	;volatile
  7156  0020FC  A4D8               	btfss	status,2,c
  7157  0020FE  EF83  F010         	goto	i2u191_41
  7158  002102  EF85  F010         	goto	i2u191_40
  7159  002106                     i2u191_41:
  7160  002106  EFEA  F010         	goto	i2l297
  7161  00210A                     i2u191_40:
  7162  00210A                     
  7163                           ;usb_device.c: 1433:         {;usb_device.c: 1434:             USBStatusStageEnabledFlag
      +                          2 = 1;
  7164  00210A  0E01               	movlw	1
  7165  00210C  6E1E               	movwf	_USBStatusStageEnabledFlag2^0,c	;volatile
  7166  00210E                     
  7167                           ;usb_device.c: 1438:             if(controlTransferState == 2)
  7168  00210E  0E02               	movlw	2
  7169  002110  1826               	xorwf	_controlTransferState^0,w,c	;volatile
  7170  002112  A4D8               	btfss	status,2,c
  7171  002114  EF8E  F010         	goto	i2u192_41
  7172  002118  EF90  F010         	goto	i2u192_40
  7173  00211C                     i2u192_41:
  7174  00211C  EFA6  F010         	goto	i2l3041
  7175  002120                     i2u192_40:
  7176  002120                     
  7177                           ;usb_device.c: 1439:             {;usb_device.c: 1440:                 pBDTEntryIn[0]->C
      +                          NT = 0;
  7178  002120  EE20 F001          	lfsr	2,1
  7179  002124  500F               	movf	_pBDTEntryIn^0,w,c
  7180  002126  26D9               	addwf	fsr2l,f,c
  7181  002128  5010               	movf	(_pBDTEntryIn+1)^0,w,c
  7182  00212A  22DA               	addwfc	fsr2h,f,c
  7183  00212C  0E00               	movlw	0
  7184  00212E  6EDF               	movwf	indf2,c
  7185  002130                     
  7186                           ;usb_device.c: 1441:                 pBDTEntryIn[0]->STAT.Val = 0x40|(0x08 & 0x08);
  7187  002130  C00F  FFD9         	movff	_pBDTEntryIn,fsr2l
  7188  002134  C010  FFDA         	movff	_pBDTEntryIn+1,fsr2h
  7189  002138  0E48               	movlw	72
  7190  00213A  6EDF               	movwf	indf2,c
  7191  00213C                     
  7192                           ;usb_device.c: 1442:                 pBDTEntryIn[0]->STAT.Val |= 0x80;
  7193  00213C  C00F  FFD9         	movff	_pBDTEntryIn,fsr2l
  7194  002140  C010  FFDA         	movff	_pBDTEntryIn+1,fsr2h
  7195  002144  0E00               	movlw	0
  7196  002146  8EDB               	bsf	plusw2,7,c
  7197                           
  7198                           ;usb_device.c: 1443:             }
  7199  002148  EFEA  F010         	goto	i2l297
  7200  00214C                     i2l3041:
  7201  00214C  0426               	decf	_controlTransferState^0,w,c	;volatile
  7202  00214E  A4D8               	btfss	status,2,c
  7203  002150  EFAC  F010         	goto	i2u193_41
  7204  002154  EFAE  F010         	goto	i2u193_40
  7205  002158                     i2u193_41:
  7206  002158  EFEA  F010         	goto	i2l293
  7207  00215C                     i2u193_40:
  7208  00215C                     
  7209                           ;usb_device.c: 1445:             {;usb_device.c: 1446:                 BothEP0OutUOWNsSe
      +                          t = 0;
  7210  00215C  0E00               	movlw	0
  7211  00215E  6E22               	movwf	_BothEP0OutUOWNsSet^0,c	;volatile
  7212  002160                     
  7213                           ;usb_device.c: 1451:                     pBDTEntryEP0OutCurrent->CNT = 32;
  7214  002160  EE20 F001          	lfsr	2,1
  7215  002164  5019               	movf	_pBDTEntryEP0OutCurrent^0,w,c
  7216  002166  26D9               	addwf	fsr2l,f,c
  7217  002168  501A               	movf	(_pBDTEntryEP0OutCurrent+1)^0,w,c
  7218  00216A  22DA               	addwfc	fsr2h,f,c
  7219  00216C  0E20               	movlw	32
  7220  00216E  6EDF               	movwf	indf2,c
  7221  002170                     
  7222                           ;usb_device.c: 1452:                     pBDTEntryEP0OutCurrent->ADR = ((uint16_t)(&Setu
      +                          pPkt));
  7223  002170  EE20 F002          	lfsr	2,2
  7224  002174  5019               	movf	_pBDTEntryEP0OutCurrent^0,w,c
  7225  002176  26D9               	addwf	fsr2l,f,c
  7226  002178  501A               	movf	(_pBDTEntryEP0OutCurrent+1)^0,w,c
  7227  00217A  22DA               	addwfc	fsr2h,f,c
  7228  00217C  0E30               	movlw	48
  7229  00217E  6EDE               	movwf	postinc2,c
  7230  002180  0E04               	movlw	4
  7231  002182  6EDD               	movwf	postdec2,c
  7232  002184                     
  7233                           ;usb_device.c: 1453:                     pBDTEntryEP0OutCurrent->STAT.Val = 0x04;
  7234  002184  C019  FFD9         	movff	_pBDTEntryEP0OutCurrent,fsr2l
  7235  002188  C01A  FFDA         	movff	_pBDTEntryEP0OutCurrent+1,fsr2h
  7236  00218C  0E04               	movlw	4
  7237  00218E  6EDF               	movwf	indf2,c
  7238  002190                     
  7239                           ;usb_device.c: 1454:                     pBDTEntryEP0OutCurrent->STAT.Val |= 0x80;
  7240  002190  C019  FFD9         	movff	_pBDTEntryEP0OutCurrent,fsr2l
  7241  002194  C01A  FFDA         	movff	_pBDTEntryEP0OutCurrent+1,fsr2h
  7242  002198  0E00               	movlw	0
  7243  00219A  8EDB               	bsf	plusw2,7,c
  7244  00219C                     
  7245                           ;usb_device.c: 1455:                     BothEP0OutUOWNsSet = 1;
  7246  00219C  0E01               	movlw	1
  7247  00219E  6E22               	movwf	_BothEP0OutUOWNsSet^0,c	;volatile
  7248  0021A0                     
  7249                           ;usb_device.c: 1459:                 pBDTEntryEP0OutNext->CNT = 32;
  7250  0021A0  EE20 F001          	lfsr	2,1
  7251  0021A4  5017               	movf	_pBDTEntryEP0OutNext^0,w,c
  7252  0021A6  26D9               	addwf	fsr2l,f,c
  7253  0021A8  5018               	movf	(_pBDTEntryEP0OutNext+1)^0,w,c
  7254  0021AA  22DA               	addwfc	fsr2h,f,c
  7255  0021AC  0E20               	movlw	32
  7256  0021AE  6EDF               	movwf	indf2,c
  7257  0021B0                     
  7258                           ;usb_device.c: 1460:                 pBDTEntryEP0OutNext->ADR = ((uint16_t)(&SetupPkt));
  7259  0021B0  EE20 F002          	lfsr	2,2
  7260  0021B4  5017               	movf	_pBDTEntryEP0OutNext^0,w,c
  7261  0021B6  26D9               	addwf	fsr2l,f,c
  7262  0021B8  5018               	movf	(_pBDTEntryEP0OutNext+1)^0,w,c
  7263  0021BA  22DA               	addwfc	fsr2h,f,c
  7264  0021BC  0E30               	movlw	48
  7265  0021BE  6EDE               	movwf	postinc2,c
  7266  0021C0  0E04               	movlw	4
  7267  0021C2  6EDD               	movwf	postdec2,c
  7268  0021C4                     
  7269                           ;usb_device.c: 1461:                 pBDTEntryEP0OutNext->STAT.Val = 0x80;
  7270  0021C4  C017  FFD9         	movff	_pBDTEntryEP0OutNext,fsr2l
  7271  0021C8  C018  FFDA         	movff	_pBDTEntryEP0OutNext+1,fsr2h
  7272  0021CC  0E80               	movlw	128
  7273  0021CE  6EDF               	movwf	indf2,c
  7274  0021D0  EFEA  F010         	goto	i2l297
  7275  0021D4                     i2l293:
  7276  0021D4                     i2l297:
  7277  0021D4  0012               	return		;funcret
  7278  0021D6                     __end_of_USBCtrlEPAllowStatusStage:
  7279                           	opt callstack 0
  7280                           
  7281 ;; *************** function _USBCtrlTrfInHandler *****************
  7282 ;; Defined at:
  7283 ;;		line 2598 in file "usb_device.c"
  7284 ;; Parameters:    Size  Location     Type
  7285 ;;		None
  7286 ;; Auto vars:     Size  Location     Type
  7287 ;;  lastDTS         1    1[COMRAM] unsigned char 
  7288 ;; Return value:  Size  Location     Type
  7289 ;;                  1    wreg      void 
  7290 ;; Registers used:
  7291 ;;		wreg, fsr1l, fsr1h, fsr2l, fsr2h, status,2, status,0, tblptrl, tblptrh, tblptru, cstack
  7292 ;; Tracked objects:
  7293 ;;		On entry : 0/0
  7294 ;;		On exit  : 0/0
  7295 ;;		Unchanged: 0/0
  7296 ;; Data sizes:     COMRAM   BANK0   BANK1   BANK2   BANK3  BANK4h  BANK4l   BANK5   BANK6   BANK7
  7297 ;;      Params:         0       0       0       0       0       0       0       0       0       0
  7298 ;;      Locals:         1       0       0       0       0       0       0       0       0       0
  7299 ;;      Temps:          0       0       0       0       0       0       0       0       0       0
  7300 ;;      Totals:         1       0       0       0       0       0       0       0       0       0
  7301 ;;Total ram usage:        1 bytes
  7302 ;; Hardware stack levels used:    1
  7303 ;; Hardware stack levels required when called:    1
  7304 ;; This function calls:
  7305 ;;		_USBCtrlTrfTxService
  7306 ;; This function is called by:
  7307 ;;		_USBCtrlEPService
  7308 ;; This function uses a non-reentrant model
  7309 ;;
  7310                           
  7311                           	psect	text37
  7312  001DDE                     __ptext37:
  7313                           	opt callstack 0
  7314  001DDE                     _USBCtrlTrfInHandler:
  7315                           	opt callstack 22
  7316  001DDE                     
  7317                           ;usb_device.c: 2600:     uint8_t lastDTS;;usb_device.c: 2602:     lastDTS = pBDTEntryIn[
      +                          0]->STAT.DTS;
  7318  001DDE  C00F  FFD9         	movff	_pBDTEntryIn,fsr2l
  7319  001DE2  C010  FFDA         	movff	_pBDTEntryIn+1,fsr2h
  7320  001DE6  0E00               	movlw	0
  7321  001DE8  BCDF               	btfsc	indf2,6,c
  7322  001DEA  0E01               	movlw	1
  7323  001DEC  6E2C               	movwf	USBCtrlTrfInHandler@lastDTS^0,c
  7324  001DEE                     
  7325                           ;usb_device.c: 2605:     pBDTEntryIn[0] = (volatile BDT_ENTRY*)(((uint16_t)pBDTEntryIn[0
      +                          ]) ^ 0x0004);
  7326  001DEE  0E04               	movlw	4
  7327  001DF0  180F               	xorwf	_pBDTEntryIn^0,w,c
  7328  001DF2  6E0F               	movwf	_pBDTEntryIn^0,c
  7329  001DF4  5010               	movf	(_pBDTEntryIn+1)^0,w,c
  7330  001DF6  6E10               	movwf	(_pBDTEntryIn+1)^0,c
  7331  001DF8                     
  7332                           ;usb_device.c: 2610:     if(USBDeviceState == ADR_PENDING_STATE)
  7333  001DF8  0E08               	movlw	8
  7334  001DFA  1828               	xorwf	_USBDeviceState^0,w,c	;volatile
  7335  001DFC  A4D8               	btfss	status,2,c
  7336  001DFE  EF03  F00F         	goto	i2u243_41
  7337  001E02  EF05  F00F         	goto	i2u243_40
  7338  001E06                     i2u243_41:
  7339  001E06  EF17  F00F         	goto	i2l3481
  7340  001E0A                     i2u243_40:
  7341  001E0A                     
  7342                           ;usb_device.c: 2611:     {;usb_device.c: 2612:         UADDR = (SetupPkt.bDevADR & 0x7F)
      +                          ;
  7343  001E0A  0104               	movlb	4	; () banked
  7344  001E0C  5132               	movf	50,w,b	;volatile
  7345  001E0E  0B7F               	andlw	127
  7346  001E10  6E6E               	movwf	110,c	;volatile
  7347  001E12                     
  7348                           ; BSR set to: 4
  7349                           ;usb_device.c: 2613:         if(UADDR != 0u)
  7350  001E12  506E               	movf	110,w,c	;volatile
  7351  001E14  B4D8               	btfsc	status,2,c
  7352  001E16  EF0F  F00F         	goto	i2u244_41
  7353  001E1A  EF11  F00F         	goto	i2u244_40
  7354  001E1E                     i2u244_41:
  7355  001E1E  EF15  F00F         	goto	i2l3479
  7356  001E22                     i2u244_40:
  7357  001E22                     
  7358                           ; BSR set to: 4
  7359                           ;usb_device.c: 2614:         {;usb_device.c: 2615:             USBDeviceState=ADDRESS_ST
      +                          ATE;
  7360  001E22  0E10               	movlw	16
  7361  001E24  6E28               	movwf	_USBDeviceState^0,c	;volatile
  7362                           
  7363                           ;usb_device.c: 2616:         }
  7364  001E26  EF17  F00F         	goto	i2l3481
  7365  001E2A                     i2l3479:
  7366                           
  7367                           ; BSR set to: 4
  7368                           ;usb_device.c: 2618:         {;usb_device.c: 2619:             USBDeviceState=DEFAULT_ST
      +                          ATE;
  7369  001E2A  0E04               	movlw	4
  7370  001E2C  6E28               	movwf	_USBDeviceState^0,c	;volatile
  7371  001E2E                     i2l3481:
  7372                           
  7373                           ;usb_device.c: 2624:     if(controlTransferState == 1)
  7374  001E2E  0426               	decf	_controlTransferState^0,w,c	;volatile
  7375  001E30  A4D8               	btfss	status,2,c
  7376  001E32  EF1D  F00F         	goto	i2u245_41
  7377  001E36  EF1F  F00F         	goto	i2u245_40
  7378  001E3A                     i2u245_41:
  7379  001E3A  EF66  F00F         	goto	i2l422
  7380  001E3E                     i2u245_40:
  7381  001E3E                     
  7382                           ;usb_device.c: 2625:     {;usb_device.c: 2626:         pBDTEntryIn[0]->ADR = ((uint16_t)
      +                          (CtrlTrfData));
  7383  001E3E  EE20 F002          	lfsr	2,2
  7384  001E42  500F               	movf	_pBDTEntryIn^0,w,c
  7385  001E44  26D9               	addwf	fsr2l,f,c
  7386  001E46  5010               	movf	(_pBDTEntryIn+1)^0,w,c
  7387  001E48  22DA               	addwfc	fsr2h,f,c
  7388  001E4A  0E50               	movlw	80
  7389  001E4C  6EDE               	movwf	postinc2,c
  7390  001E4E  0E04               	movlw	4
  7391  001E50  6EDD               	movwf	postdec2,c
  7392  001E52                     
  7393                           ;usb_device.c: 2627:         USBCtrlTrfTxService();
  7394  001E52  EC67  F00E         	call	_USBCtrlTrfTxService	;wreg free
  7395  001E56                     
  7396                           ;usb_device.c: 2633:         if(shortPacketStatus == 2)
  7397  001E56  0E02               	movlw	2
  7398  001E58  1827               	xorwf	_shortPacketStatus^0,w,c	;volatile
  7399  001E5A  A4D8               	btfss	status,2,c
  7400  001E5C  EF32  F00F         	goto	i2u246_41
  7401  001E60  EF34  F00F         	goto	i2u246_40
  7402  001E64                     i2u246_41:
  7403  001E64  EF42  F00F         	goto	i2l3493
  7404  001E68                     i2u246_40:
  7405  001E68                     
  7406                           ;usb_device.c: 2634:         {;usb_device.c: 2637:             pBDTEntryIn[0]->STAT.Val 
      +                          = 0x04;
  7407  001E68  C00F  FFD9         	movff	_pBDTEntryIn,fsr2l
  7408  001E6C  C010  FFDA         	movff	_pBDTEntryIn+1,fsr2h
  7409  001E70  0E04               	movlw	4
  7410  001E72  6EDF               	movwf	indf2,c
  7411  001E74                     
  7412                           ;usb_device.c: 2638:             pBDTEntryIn[0]->STAT.Val |= 0x80;
  7413  001E74  C00F  FFD9         	movff	_pBDTEntryIn,fsr2l
  7414  001E78  C010  FFDA         	movff	_pBDTEntryIn+1,fsr2h
  7415  001E7C  0E00               	movlw	0
  7416  001E7E  8EDB               	bsf	plusw2,7,c
  7417                           
  7418                           ;usb_device.c: 2639:         }
  7419  001E80  EF70  F00F         	goto	i2l430
  7420  001E84                     i2l3493:
  7421                           
  7422                           ;usb_device.c: 2641:         {;usb_device.c: 2642:             if(lastDTS == 0)
  7423  001E84  502C               	movf	USBCtrlTrfInHandler@lastDTS^0,w,c
  7424  001E86  A4D8               	btfss	status,2,c
  7425  001E88  EF48  F00F         	goto	i2u247_41
  7426  001E8C  EF4A  F00F         	goto	i2u247_40
  7427  001E90                     i2u247_41:
  7428  001E90  EF58  F00F         	goto	i2l3499
  7429  001E94                     i2u247_40:
  7430  001E94                     
  7431                           ;usb_device.c: 2643:             {;usb_device.c: 2644:                 pBDTEntryIn[0]->S
      +                          TAT.Val = 0x40|(0x08 & 0x08);
  7432  001E94  C00F  FFD9         	movff	_pBDTEntryIn,fsr2l
  7433  001E98  C010  FFDA         	movff	_pBDTEntryIn+1,fsr2h
  7434  001E9C  0E48               	movlw	72
  7435  001E9E  6EDF               	movwf	indf2,c
  7436  001EA0                     
  7437                           ;usb_device.c: 2645:                 pBDTEntryIn[0]->STAT.Val |= 0x80;
  7438  001EA0  C00F  FFD9         	movff	_pBDTEntryIn,fsr2l
  7439  001EA4  C010  FFDA         	movff	_pBDTEntryIn+1,fsr2h
  7440  001EA8  0E00               	movlw	0
  7441  001EAA  8EDB               	bsf	plusw2,7,c
  7442                           
  7443                           ;usb_device.c: 2646:             }
  7444  001EAC  EF70  F00F         	goto	i2l430
  7445  001EB0                     i2l3499:
  7446                           
  7447                           ;usb_device.c: 2648:             {;usb_device.c: 2649:                 pBDTEntryIn[0]->S
      +                          TAT.Val = 0x00|(0x08 & 0x08);
  7448  001EB0  C00F  FFD9         	movff	_pBDTEntryIn,fsr2l
  7449  001EB4  C010  FFDA         	movff	_pBDTEntryIn+1,fsr2h
  7450  001EB8  0E08               	movlw	8
  7451  001EBA  6EDF               	movwf	indf2,c
  7452  001EBC                     
  7453                           ;usb_device.c: 2650:                 pBDTEntryIn[0]->STAT.Val |= 0x80;
  7454  001EBC  C00F  FFD9         	movff	_pBDTEntryIn,fsr2l
  7455  001EC0  C010  FFDA         	movff	_pBDTEntryIn+1,fsr2h
  7456  001EC4  0E00               	movlw	0
  7457  001EC6  8EDB               	bsf	plusw2,7,c
  7458  001EC8  EF70  F00F         	goto	i2l430
  7459  001ECC                     i2l422:
  7460                           
  7461                           ;usb_device.c: 2655:  {;usb_device.c: 2659:         if(outPipes[0].info.bits.busy == 1)
  7462  001ECC  AE04               	btfss	(_outPipes+3)^0,7,c	;volatile
  7463  001ECE  EF6B  F00F         	goto	i2u248_41
  7464  001ED2  EF6D  F00F         	goto	i2u248_40
  7465  001ED6                     i2u248_41:
  7466  001ED6  EF6E  F00F         	goto	i2l3505
  7467  001EDA                     i2u248_40:
  7468  001EDA                     
  7469                           ;usb_device.c: 2665:             outPipes[0].info.bits.busy = 0;
  7470  001EDA  9E04               	bcf	(_outPipes+3)^0,7,c	;volatile
  7471  001EDC                     i2l3505:
  7472                           
  7473                           ;usb_device.c: 2668:         controlTransferState = 0;
  7474  001EDC  0E00               	movlw	0
  7475  001EDE  6E26               	movwf	_controlTransferState^0,c	;volatile
  7476  001EE0                     i2l430:
  7477  001EE0  0012               	return		;funcret
  7478  001EE2                     __end_of_USBCtrlTrfInHandler:
  7479                           	opt callstack 0
  7480                           
  7481 ;; *************** function _USBCtrlTrfTxService *****************
  7482 ;; Defined at:
  7483 ;;		line 1777 in file "usb_device.c"
  7484 ;; Parameters:    Size  Location     Type
  7485 ;;		None
  7486 ;; Auto vars:     Size  Location     Type
  7487 ;;  byteToSend      1    0[COMRAM] unsigned char 
  7488 ;; Return value:  Size  Location     Type
  7489 ;;                  1    wreg      void 
  7490 ;; Registers used:
  7491 ;;		wreg, fsr1l, fsr1h, fsr2l, fsr2h, status,2, status,0, tblptrl, tblptrh, tblptru
  7492 ;; Tracked objects:
  7493 ;;		On entry : 0/0
  7494 ;;		On exit  : 0/0
  7495 ;;		Unchanged: 0/0
  7496 ;; Data sizes:     COMRAM   BANK0   BANK1   BANK2   BANK3  BANK4h  BANK4l   BANK5   BANK6   BANK7
  7497 ;;      Params:         0       0       0       0       0       0       0       0       0       0
  7498 ;;      Locals:         1       0       0       0       0       0       0       0       0       0
  7499 ;;      Temps:          0       0       0       0       0       0       0       0       0       0
  7500 ;;      Totals:         1       0       0       0       0       0       0       0       0       0
  7501 ;;Total ram usage:        1 bytes
  7502 ;; Hardware stack levels used:    1
  7503 ;; This function calls:
  7504 ;;		Nothing
  7505 ;; This function is called by:
  7506 ;;		_USBCtrlEPAllowDataStage
  7507 ;;		_USBCtrlTrfInHandler
  7508 ;; This function uses a non-reentrant model
  7509 ;;
  7510                           
  7511                           	psect	text38
  7512  001CCE                     __ptext38:
  7513                           	opt callstack 0
  7514  001CCE                     _USBCtrlTrfTxService:
  7515                           	opt callstack 20
  7516  001CCE                     
  7517                           ;usb_device.c: 1779:     uint8_t byteToSend;;usb_device.c: 1783:     byteToSend = 32;
  7518  001CCE  0E20               	movlw	32
  7519  001CD0  6E2B               	movwf	USBCtrlTrfTxService@byteToSend^0,c
  7520  001CD2                     
  7521                           ;usb_device.c: 1784:     if(inPipes[0].wCount.Val < (uint8_t)32)
  7522  001CD2  500E               	movf	(_inPipes+5)^0,w,c	;volatile
  7523  001CD4  E107               	bnz	i2u177_41
  7524  001CD6  0E20               	movlw	32
  7525  001CD8  5C0D               	subwf	(_inPipes+4)^0,w,c	;volatile
  7526  001CDA  B0D8               	btfsc	status,0,c
  7527  001CDC  EF72  F00E         	goto	i2u177_41
  7528  001CE0  EF74  F00E         	goto	i2u177_40
  7529  001CE4                     i2u177_41:
  7530  001CE4  EF8C  F00E         	goto	i2l2965
  7531  001CE8                     i2u177_40:
  7532  001CE8                     
  7533                           ;usb_device.c: 1785:     {;usb_device.c: 1786:         byteToSend = inPipes[0].wCount.Va
      +                          l;
  7534  001CE8  C00D  F02B         	movff	_inPipes+4,USBCtrlTrfTxService@byteToSend	;volatile
  7535  001CEC                     
  7536                           ;usb_device.c: 1793:         if(shortPacketStatus == 0)
  7537  001CEC  5027               	movf	_shortPacketStatus^0,w,c	;volatile
  7538  001CEE  A4D8               	btfss	status,2,c
  7539  001CF0  EF7C  F00E         	goto	i2u178_41
  7540  001CF4  EF7E  F00E         	goto	i2u178_40
  7541  001CF8                     i2u178_41:
  7542  001CF8  EF82  F00E         	goto	i2l2961
  7543  001CFC                     i2u178_40:
  7544  001CFC                     
  7545                           ;usb_device.c: 1794:         {;usb_device.c: 1795:             shortPacketStatus = 1;
  7546  001CFC  0E01               	movlw	1
  7547  001CFE  6E27               	movwf	_shortPacketStatus^0,c	;volatile
  7548                           
  7549                           ;usb_device.c: 1796:         }
  7550  001D00  EF8C  F00E         	goto	i2l2965
  7551  001D04                     i2l2961:
  7552  001D04  0427               	decf	_shortPacketStatus^0,w,c	;volatile
  7553  001D06  A4D8               	btfss	status,2,c
  7554  001D08  EF88  F00E         	goto	i2u179_41
  7555  001D0C  EF8A  F00E         	goto	i2u179_40
  7556  001D10                     i2u179_41:
  7557  001D10  EF8C  F00E         	goto	i2l2965
  7558  001D14                     i2u179_40:
  7559  001D14                     
  7560                           ;usb_device.c: 1798:         {;usb_device.c: 1799:             shortPacketStatus = 2;
  7561  001D14  0E02               	movlw	2
  7562  001D16  6E27               	movwf	_shortPacketStatus^0,c	;volatile
  7563  001D18                     i2l2965:
  7564                           
  7565                           ;usb_device.c: 1805:     inPipes[0].wCount.Val -= byteToSend;
  7566  001D18  502B               	movf	USBCtrlTrfTxService@byteToSend^0,w,c
  7567  001D1A  5E0D               	subwf	(_inPipes+4)^0,f,c	;volatile
  7568  001D1C  0E00               	movlw	0
  7569  001D1E  5A0E               	subwfb	(_inPipes+5)^0,f,c	;volatile
  7570  001D20                     
  7571                           ;usb_device.c: 1810:     pBDTEntryIn[0]->CNT = byteToSend;
  7572  001D20  EE20 F001          	lfsr	2,1
  7573  001D24  500F               	movf	_pBDTEntryIn^0,w,c
  7574  001D26  26D9               	addwf	fsr2l,f,c
  7575  001D28  5010               	movf	(_pBDTEntryIn+1)^0,w,c
  7576  001D2A  22DA               	addwfc	fsr2h,f,c
  7577  001D2C  C02B  FFDF         	movff	USBCtrlTrfTxService@byteToSend,indf2
  7578  001D30                     
  7579                           ;usb_device.c: 1814:     pDst = (volatile uint8_t*)CtrlTrfData;
  7580  001D30  0E50               	movlw	80
  7581  001D32  0100               	movlb	0	; () banked
  7582  001D34  6F86               	movwf	_pDst& (0+255),b
  7583  001D36  0E04               	movlw	4
  7584  001D38  6F87               	movwf	(_pDst+1)& (0+255),b
  7585  001D3A                     
  7586                           ; BSR set to: 0
  7587                           ;usb_device.c: 1815:     if(inPipes[0].info.bits.ctrl_trf_mem == 0x00)
  7588  001D3A  B00C               	btfsc	(_inPipes+3)^0,0,c	;volatile
  7589  001D3C  EFA2  F00E         	goto	i2u180_41
  7590  001D40  EFA4  F00E         	goto	i2u180_40
  7591  001D44                     i2u180_41:
  7592  001D44  EFE6  F00E         	goto	i2l2993
  7593  001D48                     i2u180_40:
  7594  001D48  EFC1  F00E         	goto	i2l2983
  7595  001D4C                     i2l2975:
  7596                           
  7597                           ; BSR set to: 0
  7598                           ;usb_device.c: 1818:         {;usb_device.c: 1819:             *pDst++ = *inPipes[0].pSr
      +                          c.bRom++;
  7599  001D4C  C009  FFF6         	movff	_inPipes,tblptrl	;volatile
  7600  001D50  C00A  FFF7         	movff	_inPipes+1,tblptrh	;volatile
  7601  001D54  6AF8               	clrf	tblptru,c
  7602  001D56  C086  FFD9         	movff	_pDst,fsr2l
  7603  001D5A  C087  FFDA         	movff	_pDst+1,fsr2h
  7604  001D5E  0E07               	movlw	(high __ramtop+-1)
  7605  001D60  64F7               	cpfsgt	tblptrh,c
  7606  001D62  D003               	bra	i2u181_47
  7607  001D64  0008               	tblrd		*
  7608  001D66  50F5               	movf	tablat,w,c
  7609  001D68  D005               	bra	i2u181_40
  7610  001D6A                     i2u181_47:
  7611  001D6A  CFF6 FFE1          	movff	tblptrl,fsr1l
  7612  001D6E  CFF7 FFE2          	movff	tblptrh,fsr1h
  7613  001D72  50E7               	movf	indf1,w,c
  7614  001D74                     i2u181_40:
  7615  001D74  6EDF               	movwf	indf2,c
  7616  001D76  4A09               	infsnz	_inPipes^0,f,c	;volatile
  7617  001D78  2A0A               	incf	(_inPipes+1)^0,f,c	;volatile
  7618  001D7A  0100               	movlb	0	; () banked
  7619  001D7C  4B86               	infsnz	_pDst& (0+255),f,b
  7620  001D7E  2B87               	incf	(_pDst+1)& (0+255),f,b
  7621  001D80                     
  7622                           ; BSR set to: 0
  7623                           ;usb_device.c: 1820:             byteToSend--;
  7624  001D80  062B               	decf	USBCtrlTrfTxService@byteToSend^0,f,c
  7625  001D82                     i2l2983:
  7626                           
  7627                           ; BSR set to: 0
  7628                           ;usb_device.c: 1817:         while(byteToSend)
  7629  001D82  502B               	movf	USBCtrlTrfTxService@byteToSend^0,w,c
  7630  001D84  A4D8               	btfss	status,2,c
  7631  001D86  EFC7  F00E         	goto	i2u182_41
  7632  001D8A  EFC9  F00E         	goto	i2u182_40
  7633  001D8E                     i2u182_41:
  7634  001D8E  EFA6  F00E         	goto	i2l2975
  7635  001D92                     i2u182_40:
  7636  001D92  EFEE  F00E         	goto	i2l336
  7637  001D96                     i2l2985:
  7638                           
  7639                           ; BSR set to: 0
  7640                           ;usb_device.c: 1826:         {;usb_device.c: 1827:             *pDst++ = *inPipes[0].pSr
      +                          c.bRam++;
  7641  001D96  C009  FFF6         	movff	_inPipes,tblptrl	;volatile
  7642  001D9A  C00A  FFF7         	movff	_inPipes+1,tblptrh	;volatile
  7643  001D9E  6AF8               	clrf	tblptru,c
  7644  001DA0  C086  FFD9         	movff	_pDst,fsr2l
  7645  001DA4  C087  FFDA         	movff	_pDst+1,fsr2h
  7646  001DA8  0E07               	movlw	(high __ramtop+-1)
  7647  001DAA  64F7               	cpfsgt	tblptrh,c
  7648  001DAC  D003               	bra	i2u183_47
  7649  001DAE  0008               	tblrd		*
  7650  001DB0  50F5               	movf	tablat,w,c
  7651  001DB2  D005               	bra	i2u183_40
  7652  001DB4                     i2u183_47:
  7653  001DB4  CFF6 FFE1          	movff	tblptrl,fsr1l
  7654  001DB8  CFF7 FFE2          	movff	tblptrh,fsr1h
  7655  001DBC  50E7               	movf	indf1,w,c
  7656  001DBE                     i2u183_40:
  7657  001DBE  6EDF               	movwf	indf2,c
  7658  001DC0  4A09               	infsnz	_inPipes^0,f,c	;volatile
  7659  001DC2  2A0A               	incf	(_inPipes+1)^0,f,c	;volatile
  7660  001DC4  0100               	movlb	0	; () banked
  7661  001DC6  4B86               	infsnz	_pDst& (0+255),f,b
  7662  001DC8  2B87               	incf	(_pDst+1)& (0+255),f,b
  7663  001DCA                     
  7664                           ; BSR set to: 0
  7665                           ;usb_device.c: 1828:             byteToSend--;
  7666  001DCA  062B               	decf	USBCtrlTrfTxService@byteToSend^0,f,c
  7667  001DCC                     i2l2993:
  7668                           
  7669                           ; BSR set to: 0
  7670                           ;usb_device.c: 1825:         while(byteToSend)
  7671  001DCC  502B               	movf	USBCtrlTrfTxService@byteToSend^0,w,c
  7672  001DCE  A4D8               	btfss	status,2,c
  7673  001DD0  EFEC  F00E         	goto	i2u184_41
  7674  001DD4  EFEE  F00E         	goto	i2u184_40
  7675  001DD8                     i2u184_41:
  7676  001DD8  EFCB  F00E         	goto	i2l2985
  7677  001DDC                     i2u184_40:
  7678  001DDC                     i2l336:
  7679                           
  7680                           ; BSR set to: 0
  7681  001DDC  0012               	return		;funcret
  7682  001DDE                     __end_of_USBCtrlTrfTxService:
  7683                           	opt callstack 0
  7684                           
  7685                           	psect	rparam
  7686  0000                     
  7687                           	psect	temp
  7688  000054                     btemp:
  7689                           	opt callstack 0
  7690  000054                     	ds	1
  7691  0000                     int$flags	set	btemp
  7692  0000                     wtemp8	set	btemp+1
  7693  0000                     ttemp5	set	btemp+1
  7694  0000                     ttemp6	set	btemp+4
  7695  0000                     ttemp7	set	btemp+8
  7696                           tosu	equ	0xFFF
  7697                           tosh	equ	0xFFE
  7698                           tosl	equ	0xFFD
  7699                           stkptr	equ	0xFFC
  7700                           pclatu	equ	0xFFB
  7701                           pclath	equ	0xFFA
  7702                           pcl	equ	0xFF9
  7703                           tblptru	equ	0xFF8
  7704                           tblptrh	equ	0xFF7
  7705                           tblptrl	equ	0xFF6
  7706                           tablat	equ	0xFF5
  7707                           prodh	equ	0xFF4
  7708                           prodl	equ	0xFF3
  7709                           indf0	equ	0xFEF
  7710                           postinc0	equ	0xFEE
  7711                           postdec0	equ	0xFED
  7712                           preinc0	equ	0xFEC
  7713                           plusw0	equ	0xFEB
  7714                           fsr0h	equ	0xFEA
  7715                           fsr0l	equ	0xFE9
  7716                           wreg	equ	0xFE8
  7717                           indf1	equ	0xFE7
  7718                           postinc1	equ	0xFE6
  7719                           postdec1	equ	0xFE5
  7720                           preinc1	equ	0xFE4
  7721                           plusw1	equ	0xFE3
  7722                           fsr1h	equ	0xFE2
  7723                           fsr1l	equ	0xFE1
  7724                           bsr	equ	0xFE0
  7725                           indf2	equ	0xFDF
  7726                           postinc2	equ	0xFDE
  7727                           postdec2	equ	0xFDD
  7728                           preinc2	equ	0xFDC
  7729                           plusw2	equ	0xFDB
  7730                           fsr2h	equ	0xFDA
  7731                           fsr2l	equ	0xFD9
  7732                           status	equ	0xFD8


Data Sizes:
    Strings     0
    Constant    171
    Data        0
    BSS         105
    Persistent  0
    Stack       0

Auto Spaces:
    Space          Size  Autos    Used
    COMRAM           94     41      83
    BANK0           160     15      78
    BANK1           256      0       0
    BANK2           256      0       0
    BANK3           256      0       0
    BANK4h          144      0       0
    BANK4l           24      0       0
    BANK5           128      0       0
    BANK6           256      0       0
    BANK7           256      0       0

Pointer List with Targets:

    USER_USB_CALLBACK_EVENT_HANDLER@pdata	PTR void  size(2) Largest target is 2047
		 -> RAM(DATA[2047]), USTATcopy(COMRAM[1]), USBActiveConfiguration(COMRAM[1]), NULL(NULL[0]), 
		 -> BDT(BIGRAMl[48]), 

    memset@dest	PTR void  size(2) Largest target is 48
		 -> USBAlternateInterface(BANK0[2]), BDT(BIGRAMl[48]), UEP1(SFR[1]), 

    memset@s	PTR unsigned char  size(2) Largest target is 48
		 -> USBAlternateInterface(BANK0[2]), BDT(BIGRAMl[48]), UEP1(SFR[1]), 

    memcpy@d1	PTR void  size(2) Largest target is 8
		 -> SetupPkt(BIGRAMhl[8]), 

    memcpy@d	PTR unsigned char  size(2) Largest target is 8
		 -> SetupPkt(BIGRAMhl[8]), 

    memcpy@s1	PTR const void  size(2) Largest target is 2047
		 -> CtrlTrfData(BIGRAMhl[32]), RAM(DATA[2047]), SetupPkt(BIGRAMhl[8]), 

    memcpy@s	PTR const unsigned char  size(2) Largest target is 2047
		 -> CtrlTrfData(BIGRAMhl[32]), RAM(DATA[2047]), SetupPkt(BIGRAMhl[8]), 

    putUSBUSART@data	PTR unsigned char  size(2) Largest target is 4
		 -> main@msg(CODE[4]), 

    CDCDataInHandle	PTR void  size(2) Largest target is 2047
		 -> RAM(DATA[2047]), NULL(NULL[0]), BDT(BIGRAMl[48]), 

    CDCDataOutHandle	PTR void  size(2) Largest target is 2047
		 -> RAM(DATA[2047]), NULL(NULL[0]), BDT(BIGRAMl[48]), 

    pCDCDst.wRom	PTR const unsigned short  size(2) Largest target is 0

    pCDCDst.bRom	PTR const unsigned char  size(2) Largest target is 0

    pCDCDst.wRam	PTR unsigned short  size(2) Largest target is 0

    pCDCDst.bRam	PTR unsigned char  size(2) Largest target is 0

    S1968_POINTER$wRom	PTR const unsigned short  size(2) Largest target is 0

    pCDCSrc.wRom	PTR const unsigned short  size(2) Largest target is 0

    S1968_POINTER$bRom	PTR const unsigned char  size(2) Largest target is 0

    pCDCSrc.bRom	PTR const unsigned char  size(2) Largest target is 0

    S1968_POINTER$wRam	PTR unsigned short  size(2) Largest target is 0

    pCDCSrc.wRam	PTR unsigned short  size(2) Largest target is 0

    S1968_POINTER$bRam	PTR unsigned char  size(2) Largest target is 0

    pCDCSrc.bRam	PTR unsigned char  size(2) Largest target is 0

    USBStdFeatureReqHandler@pUEP	PTR unsigned char  size(2) Largest target is 1
		 -> UEP0(SFR[1]), 

    USBStdFeatureReqHandler@p	PTR struct __BDT size(2) Largest target is 2047
		 -> RAM(DATA[2047]), NULL(NULL[0]), BDT(BIGRAMl[48]), 

    sp__memcpy	PTR void  size(2) Largest target is 8
		 -> SetupPkt(BIGRAMhl[8]), 

    USBStdGetStatusHandler@p	PTR struct __BDT size(2) Largest target is 2047
		 -> RAM(DATA[2047]), NULL(NULL[0]), BDT(BIGRAMl[48]), 

    pDst	PTR volatile unsigned char  size(2) Largest target is 32
		 -> CtrlTrfData(BIGRAMhl[32]), NULL(NULL[0]), 

    USBConfigureEndpoint@handle	PTR volatile struct __BDT size(2) Largest target is 48
		 -> BDT(BIGRAMl[48]), 

    pBDTEntryEP0OutCurrent	PTR volatile struct __BDT size(2) Largest target is 48
		 -> NULL(NULL[0]), BDT(BIGRAMl[48]), 

    pBDTEntryEP0OutNext	PTR volatile struct __BDT size(2) Largest target is 2047
		 -> RAM(DATA[2047]), NULL(NULL[0]), BDT(BIGRAMl[48]), 

    USBTransferOnePacket@data	PTR unsigned char  size(2) Largest target is 64
		 -> cdc_data_tx(BIGRAMhhl[64]), cdc_data_rx(BIGRAMhhh[64]), NULL(NULL[0]), 

    sp__USBTransferOnePacket	PTR void  size(2) Largest target is 2047
		 -> RAM(DATA[2047]), NULL(NULL[0]), BDT(BIGRAMl[48]), 

    USBTransferOnePacket@handle	PTR volatile struct __BDT size(2) Largest target is 2047
		 -> RAM(DATA[2047]), NULL(NULL[0]), BDT(BIGRAMl[48]), 

    USBEnableEndpoint@p	PTR unsigned char  size(2) Largest target is 1
		 -> UEP0(SFR[1]), 

    pBDTEntryOut	PTR volatile struct __BDT[3] size(2) Largest target is 2047
		 -> RAM(DATA[2047]), NULL(NULL[0]), BDT(BIGRAMl[48]), 

    pBDTEntryIn	PTR volatile struct __BDT[3] size(2) Largest target is 2047
		 -> RAM(DATA[2047]), NULL(NULL[0]), BDT(BIGRAMl[48]), 

    S462$pFunc	PTR FTN()void  size(2) Largest target is 0
		 -> NULL(NULL[0]), 

    outPipes.pFunc	PTR FTN()void  size(2) Largest target is 0
		 -> NULL(NULL[0]), 

    S452$wRam	PTR unsigned short  size(2) Largest target is 0

    outPipes.pDst.wRam	PTR unsigned short  size(2) Largest target is 0

    S452$bRam	PTR unsigned char  size(2) Largest target is 0

    outPipes.pDst.bRam	PTR unsigned char  size(2) Largest target is 0

    S428$wRom	PTR const unsigned short  size(2) Largest target is 0

    inPipes.pSrc.wRom	PTR const unsigned short  size(2) Largest target is 0

    S428$wRam	PTR unsigned short  size(2) Largest target is 0

    inPipes.pSrc.wRam	PTR unsigned short  size(2) Largest target is 0

    S428$bRom	PTR const unsigned char  size(2) Largest target is 0

    inPipes.pSrc.bRom	PTR const unsigned char  size(2) Largest target is 0

    S428$bRam	PTR unsigned char  size(2) Largest target is 0

    inPipes.pSrc.bRam	PTR unsigned char  size(2) Largest target is 0

    sp__memset	PTR void  size(2) Largest target is 48
		 -> USBAlternateInterface(BANK0[2]), BDT(BIGRAMl[48]), UEP1(SFR[1]), 

    USB_SD_Ptr	const PTR const unsigned char [3] size(2) Largest target is 38
		 -> sd002(CODE[32]), sd001(CODE[38]), sd000(CODE[4]), 

    USB_CD_Ptr	const PTR const unsigned char [1] size(2) Largest target is 67
		 -> configDescriptor1(CODE[67]), 


Critical Paths under _main in COMRAM

    None.

Critical Paths under _mainISR in COMRAM

    _processUSBTasks->_USBDeviceTasks
    _USBDeviceTasks->_USBCtrlEPService
    i2_USBDeviceInit->i2_memset
    _USBWakeFromSuspend->_USER_USB_CALLBACK_EVENT_HANDLER
    _USBSuspend->_USER_USB_CALLBACK_EVENT_HANDLER
    _USBCtrlTrfSetupHandler->_USBCheckStdRequest
    _USBCtrlEPAllowDataStage->_USBCtrlTrfTxService
    _USBCheckStdRequest->_USBStdFeatureReqHandler
    _USBStdSetCfgHandler->_USER_USB_CALLBACK_EVENT_HANDLER
    _USBStdFeatureReqHandler->_USER_USB_CALLBACK_EVENT_HANDLER
    _CDCInitEP->_USBEnableEndpoint
    _USBEnableEndpoint->_USBConfigureEndpoint
    _USBCtrlTrfOutHandler->_USBCtrlTrfRxService
    _USBCtrlTrfInHandler->_USBCtrlTrfTxService

Critical Paths under _main in BANK0

    _main->_CDCTxService
    _initUSBLib->_USBDeviceInit
    _USBDeviceInit->_memset
    _CDCTxService->_USBTransferOnePacket

Critical Paths under _mainISR in BANK0

    None.

Critical Paths under _main in BANK1

    None.

Critical Paths under _mainISR in BANK1

    None.

Critical Paths under _main in BANK2

    None.

Critical Paths under _mainISR in BANK2

    None.

Critical Paths under _main in BANK3

    None.

Critical Paths under _mainISR in BANK3

    None.

Critical Paths under _main in BANK4h

    None.

Critical Paths under _mainISR in BANK4h

    None.

Critical Paths under _main in BANK4l

    None.

Critical Paths under _mainISR in BANK4l

    None.

Critical Paths under _main in BANK5

    None.

Critical Paths under _mainISR in BANK5

    None.

Critical Paths under _main in BANK6

    None.

Critical Paths under _mainISR in BANK6

    None.

Critical Paths under _main in BANK7

    None.

Critical Paths under _mainISR in BANK7

    None.

Call Graph Tables:

 ---------------------------------------------------------------------------------
 (Depth) Function   	        Calls       Base Space   Used Autos Params    Refs
 ---------------------------------------------------------------------------------
 (0) _main                                                 2     2      0    4774
                                             13 BANK0      2     2      0
                       _CDCTxService
                         _initUSBLib
                         _isUSBReady
                        _putUSBUSART
 ---------------------------------------------------------------------------------
 (1) _putUSBUSART                                          3     0      3     270
                                              0 BANK0      3     0      3
 ---------------------------------------------------------------------------------
 (1) _isUSBReady                                           2     2      0      37
                                              0 BANK0      2     2      0
 ---------------------------------------------------------------------------------
 (1) _initUSBLib                                           0     0      0    2241
                    _USBDeviceAttach
                      _USBDeviceInit
 ---------------------------------------------------------------------------------
 (2) _USBDeviceInit                                        1     1      0    2241
                                             12 BANK0      1     1      0
                             _memset
 ---------------------------------------------------------------------------------
 (3) _memset                                              12     6      6    1950
                                              0 BANK0     12     6      6
 ---------------------------------------------------------------------------------
 (2) _USBDeviceAttach                                      0     0      0       0
 ---------------------------------------------------------------------------------
 (1) _CDCTxService                                         2     2      0    2189
                                             11 BANK0      2     2      0
               _USBTransferOnePacket
 ---------------------------------------------------------------------------------
 (2) _USBTransferOnePacket                                11     7      4    1988
                                              0 BANK0     11     7      4
 ---------------------------------------------------------------------------------
 Estimated maximum stack depth 3
 ---------------------------------------------------------------------------------
 (Depth) Function   	        Calls       Base Space   Used Autos Params    Refs
 ---------------------------------------------------------------------------------
 (4) _mainISR                                             10    10      0   30801
                                             31 COMRAM    10    10      0
                    _processUSBTasks
 ---------------------------------------------------------------------------------
 (5) _processUSBTasks                                      0     0      0   30801
                     _USBDeviceTasks
 ---------------------------------------------------------------------------------
 (6) _USBDeviceTasks                                       1     1      0   30801
                                             30 COMRAM     1     1      0
          _USBCtrlEPAllowStatusStage
                   _USBCtrlEPService
      _USBIncrement1msInternalTimers
                    _USBStallHandler
                         _USBSuspend
                 _USBWakeFromSuspend
    _USER_USB_CALLBACK_EVENT_HANDLER
                    i2_USBDeviceInit
 ---------------------------------------------------------------------------------
 (7) i2_USBDeviceInit                                      1     1      0    1233
                                             12 COMRAM     1     1      0
                           i2_memset
 ---------------------------------------------------------------------------------
 (7) _USBWakeFromSuspend                                   0     0      0    3879
    _USER_USB_CALLBACK_EVENT_HANDLER
 ---------------------------------------------------------------------------------
 (7) _USBSuspend                                           0     0      0    3879
    _USER_USB_CALLBACK_EVENT_HANDLER
 ---------------------------------------------------------------------------------
 (7) _USBStallHandler                                      1     1      0       0
                                              0 COMRAM     1     1      0
 ---------------------------------------------------------------------------------
 (7) _USBIncrement1msInternalTimers                        0     0      0       0
 ---------------------------------------------------------------------------------
 (7) _USBCtrlEPService                                     1     1      0   17885
                                             29 COMRAM     1     1      0
                _USBCtrlTrfInHandler
               _USBCtrlTrfOutHandler
             _USBCtrlTrfSetupHandler
                             _memcpy
 ---------------------------------------------------------------------------------
 (8) _memcpy                                              11     5      6     410
                                              0 COMRAM    11     5      6
 ---------------------------------------------------------------------------------
 (8) _USBCtrlTrfSetupHandler                               0     0      0   17246
                 _USBCheckStdRequest
           _USBCtrlEPServiceComplete
    _USER_USB_CALLBACK_EVENT_HANDLER
 ---------------------------------------------------------------------------------
 (9) _USBCtrlEPServiceComplete                             0     0      0      92
            _USBCtrlEPAllowDataStage
          _USBCtrlEPAllowStatusStage
 ---------------------------------------------------------------------------------
 (10) _USBCtrlEPAllowDataStage                             0     0      0      92
                _USBCtrlTrfTxService
 ---------------------------------------------------------------------------------
 (9) _USBCheckStdRequest                                   2     2      0   13275
                                             27 COMRAM     2     2      0
            _USBStdFeatureReqHandler
                _USBStdGetDscHandler
             _USBStdGetStatusHandler
                _USBStdSetCfgHandler
    _USER_USB_CALLBACK_EVENT_HANDLER
 ---------------------------------------------------------------------------------
 (10) _USBStdSetCfgHandler                                 1     1      0    5000
                                             20 COMRAM     1     1      0
    _USER_USB_CALLBACK_EVENT_HANDLER
                           i2_memset
 ---------------------------------------------------------------------------------
 (8) i2_memset                                            12     6      6    1031
                                              0 COMRAM    12     6      6
 ---------------------------------------------------------------------------------
 (10) _USBStdGetStatusHandler                              4     4      0      46
                                              0 COMRAM     4     4      0
 ---------------------------------------------------------------------------------
 (10) _USBStdGetDscHandler                                 2     2      0       0
                                              0 COMRAM     2     2      0
 ---------------------------------------------------------------------------------
 (10) _USBStdFeatureReqHandler                             7     7      0    4350
                                             20 COMRAM     7     7      0
    _USER_USB_CALLBACK_EVENT_HANDLER
 ---------------------------------------------------------------------------------
 (7) _USER_USB_CALLBACK_EVENT_HANDLER                      8     2      6    3879
                                             12 COMRAM     8     2      6
                          _CDCInitEP
                 _USBCheckCDCRequest
 ---------------------------------------------------------------------------------
 (8) _USBCheckCDCRequest                                   2     2      0       0
                                              0 COMRAM     2     2      0
 ---------------------------------------------------------------------------------
 (8) _CDCInitEP                                            0     0      0    1187
                  _USBEnableEndpoint
             i2_USBTransferOnePacket
 ---------------------------------------------------------------------------------
 (9) i2_USBTransferOnePacket                              11     7      4     454
                                              0 COMRAM    11     7      4
 ---------------------------------------------------------------------------------
 (9) _USBEnableEndpoint                                    4     3      1     733
                                              8 COMRAM     4     3      1
               _USBConfigureEndpoint
 ---------------------------------------------------------------------------------
 (10) _USBConfigureEndpoint                                8     7      1     400
                                              0 COMRAM     8     7      1
 ---------------------------------------------------------------------------------
 (8) _USBCtrlTrfOutHandler                                 0     0      0     114
                _USBCtrlTrfRxService
 ---------------------------------------------------------------------------------
 (9) _USBCtrlTrfRxService                                  2     2      0     114
                                              0 COMRAM     2     2      0
          _USBCtrlEPAllowStatusStage
 ---------------------------------------------------------------------------------
 (10) _USBCtrlEPAllowStatusStage                           0     0      0       0
 ---------------------------------------------------------------------------------
 (8) _USBCtrlTrfInHandler                                  1     1      0     115
                                              1 COMRAM     1     1      0
                _USBCtrlTrfTxService
 ---------------------------------------------------------------------------------
 (11) _USBCtrlTrfTxService                                 1     1      0      92
                                              0 COMRAM     1     1      0
 ---------------------------------------------------------------------------------
 Estimated maximum stack depth 11
 ---------------------------------------------------------------------------------

 Call Graph Graphs:

 _main (ROOT)
   _CDCTxService
     _USBTransferOnePacket
   _initUSBLib
     _USBDeviceAttach
     _USBDeviceInit
       _memset
   _isUSBReady
   _putUSBUSART

 _mainISR (ROOT)
   _processUSBTasks
     _USBDeviceTasks
       _USBCtrlEPAllowStatusStage
       _USBCtrlEPService
         _USBCtrlTrfInHandler
           _USBCtrlTrfTxService
         _USBCtrlTrfOutHandler
           _USBCtrlTrfRxService
             _USBCtrlEPAllowStatusStage
         _USBCtrlTrfSetupHandler
           _USBCheckStdRequest
             _USBStdFeatureReqHandler
               _USER_USB_CALLBACK_EVENT_HANDLER
                 _CDCInitEP
                   _USBEnableEndpoint
                     _USBConfigureEndpoint
                   i2_USBTransferOnePacket
                 _USBCheckCDCRequest
             _USBStdGetDscHandler
             _USBStdGetStatusHandler
             _USBStdSetCfgHandler
               _USER_USB_CALLBACK_EVENT_HANDLER
                 _CDCInitEP
                   _USBEnableEndpoint
                     _USBConfigureEndpoint
                   i2_USBTransferOnePacket
                 _USBCheckCDCRequest
               i2_memset
             _USER_USB_CALLBACK_EVENT_HANDLER
               _CDCInitEP
                 _USBEnableEndpoint
                   _USBConfigureEndpoint
                 i2_USBTransferOnePacket
               _USBCheckCDCRequest
           _USBCtrlEPServiceComplete
             _USBCtrlEPAllowDataStage
               _USBCtrlTrfTxService
             _USBCtrlEPAllowStatusStage
           _USER_USB_CALLBACK_EVENT_HANDLER
             _CDCInitEP
               _USBEnableEndpoint
                 _USBConfigureEndpoint
               i2_USBTransferOnePacket
             _USBCheckCDCRequest
         _memcpy
       _USBIncrement1msInternalTimers
       _USBStallHandler
       _USBSuspend
         _USER_USB_CALLBACK_EVENT_HANDLER
           _CDCInitEP
             _USBEnableEndpoint
               _USBConfigureEndpoint
             i2_USBTransferOnePacket
           _USBCheckCDCRequest
       _USBWakeFromSuspend
         _USER_USB_CALLBACK_EVENT_HANDLER
           _CDCInitEP
             _USBEnableEndpoint
               _USBConfigureEndpoint
             i2_USBTransferOnePacket
           _USBCheckCDCRequest
       _USER_USB_CALLBACK_EVENT_HANDLER
         _CDCInitEP
           _USBEnableEndpoint
             _USBConfigureEndpoint
           i2_USBTransferOnePacket
         _USBCheckCDCRequest
       i2_USBDeviceInit
         i2_memset

 Address spaces:
Name               Size   Autos  Total    Cost      Usage
BIGRAMl            3FF      0       0      25        0.0%
BIGRAMhhh          280      0       0      22        0.0%
EEDATA             100      0       0       0        0.0%
BITBANK7           100      0       0      20        0.0%
BANK7              100      0       0      21        0.0%
BITBANK6           100      0       0      18        0.0%
BANK6              100      0       0      19        0.0%
BITBANK3           100      0       0       9        0.0%
BANK3              100      0       0      10        0.0%
BITBANK2           100      0       0       7        0.0%
BANK2              100      0       0       8        0.0%
BITBANK1           100      0       0       5        0.0%
BANK1              100      0       0       6        0.0%
BITBANK0            A0      0       0       3        0.0%
BANK0               A0      F      4E       4       48.8%
BIGRAMhhl           90      0       0      23        0.0%
BANK4h              90      0       0      13        0.0%
BITBANK4h           90      0       0      11        0.0%
BITBANK5            80      0       0      15        0.0%
BANK5               80      0       0      16        0.0%
BITCOMRAM           5E      0       0       0        0.0%
COMRAM              5E     29      53       1       88.3%
BIGRAMhl            18      0       0      24        0.0%
BITBANK4l           18      0       0      12        0.0%
BANK4l              18      0       0      14        0.0%
BITSFR               0      0       0     200        0.0%
SFR                  0      0       0     200        0.0%
STACK                0      0       0       2        0.0%
NULL                 0      0       0       0        0.0%
ABS                  0      0      A1      17        0.0%
DATA                 0      0      A1      26        0.0%
CODE                 0      0       0       0        0.0%


Microchip Technology PIC18 Macro Assembler V2.10 build 88905656 
Symbol Table                                                                                   Sun Oct 12 19:45:26 2025

                              _USB_SD_Ptr 0801                                        l36 24EE  
                                      l38 255E                                        l64 2A5C  
                                      l75 2968                                        l76 296A  
                           _USBDeviceInit 1414                               __CFG_BORV$3 000000  
                      __size_of_CDCInitEP 0064                              __CFG_CP0$OFF 000000  
                            __CFG_CP1$OFF 000000                              __CFG_CP2$OFF 000000  
                            __CFG_CP3$OFF 000000      USER_USB_CALLBACK_EVENT_HANDLER@event 0037  
    USER_USB_CALLBACK_EVENT_HANDLER@pdata 0039                                       l231 1560  
                                     l226 147C               __end_of_USBStdGetDscHandler 1414  
                                     l267 1930                                       l286 28E0  
                                     l287 28DE                                       l289 28F2  
                                     l590 0EE8                                       l566 2A28  
                                     l584 0FC4                                       l585 0E72  
                                     _BDT 000400                              __CFG_CPB$OFF 000000  
                            __CFG_CPD$OFF 000000                                       _UIE 000F69  
                                     _UIR 000F68                              __CFG_BOR$OFF 000000  
                              _USBSuspend 29D0                      USBStdSetCfgHandler@i 003F  
                                     prod 000FF3                                       wreg 000FE8  
                          _USBDeviceTasks 0C02                            _USBDeviceState 0028  
                   ??_USBCtrlTrfRxService 002B                  __size_ofi2_USBDeviceInit 014A  
                USBEnableEndpoint@options 0033                              __CFG_LVP$OFF 000000  
                            __CFG_WDT$OFF 000000                                      l1305 113C  
                                    PORTB 000F81                                      PORTD 000F83  
              USBConfigureEndpoint@handle 0031                                      l4301 0FE6  
                                    l4303 0FF2                                      l4321 1114  
                                    l4313 109A                                      l4401 1558  
                                    l4411 28D8                                      l4323 1120  
                                    l4315 10C6                                      l4307 1028  
                                    l4403 155C                                      l4331 1416  
                                    l4421 183A                                      l4501 0EEC  
                                    l4413 28EE                                      l4405 28B2  
                                    l4325 1126                                      l4309 1080  
                                    l4341 144C                                      l4333 1422  
                                    l4431 1888                                      l4423 184C  
                                    l4415 17F4                                      l4511 0F28  
                                    l4503 0EFA                                      l4407 28C2  
                                    l4327 112A                                      l4319 10E0  
                                    l4351 146C                                      l4335 1440  
                                    l4441 1928                                      l4433 1894  
                                    l4417 1806                                      l4521 0F5C  
                                    l4513 0F2C                                      l4505 0EFE  
                                    l4409 28D6                                      l4361 1488  
                                    l4353 147E                                      l4337 1444  
                                    l4329 1414                                      l4435 18A0  
                                    l4427 1858                                      l4419 1822  
                                    l4531 0F86                                      l4523 0F60  
                                    l4515 0F30                                      l4363 148C  
                                    l4355 1482                                      l4347 1452  
                                    l4339 1448                                      l4451 2934  
                                    l4437 18B0                                      l4429 187C  
                                    l4533 0F98                                      l4525 0F64  
                                    l4509 0F12                                      l4517 0F32  
                                    l4381 1510                                      l4365 1490  
                                    l4357 1484                                      l4349 146A  
                                    l4445 2A50                                      l4453 2944  
                                    l4461 29FE                                      l4541 24CE  
                                    l4439 18EE                                      l4535 0FA0  
                                    l4519 0F46                                      l4527 0F66  
                                    l4391 1538                                      l4383 1512  
                                    l4375 14C0                                      l4367 1498  
                                    l4359 1486                                      l4447 2A54  
                                    l4455 2952                                      l4471 2A22  
                                    l4463 2A00                                      l4551 2504  
                                    l4543 24D2                                      l4537 0FA4  
                                    l4529 0F76                                      l4481 0E56  
                                    l4297 0FC6                                      l4393 153C  
                                    l4385 1522                                      l4377 14F0  
                                    l4369 14A6                                      l4449 2A58  
                                    l4457 295E                                      l4465 2A10  
                                    l4473 2A26                                      l4561 2544  
                                    l4553 2518                                      l4545 24E4  
                                    l4539 0FC2                                      l4491 0E9A  
                                    l4483 0E5C                                      l4475 0E2A  
                                    l4395 1540                                      l4387 152A  
                                    l4379 1500                                      l4467 2A18  
                                    l4563 2556                                      l4555 251C  
                                    l4547 24E8                                      l4493 0EB8  
                                    l4485 0E6E                                      l4477 0E2C  
                                    l4397 1542                                      l4389 152E  
                                    l4469 2A1C                                      l4557 252C  
                                    l4565 2560                                      l4549 24F4  
                                    l4495 0EC0                                      l4487 0E82  
                                    l4479 0E40                                      l4399 1546  
                                    l4559 2530                                      l4497 0ED0  
                                    l4489 0E88                                      l4499 0EE0  
                                    u3310 0FE2                                      u3311 0FDE  
                                    u3400 28EE                                      u3320 1024  
                                    u3401 28EA                                      u3321 1020  
                                    u3410 1806                                      u3330 1096  
                                    u3411 1802                                      u3331 1092  
                                    u3420 184C                                      u3500 0E82  
                                    u3340 10DC                                      u3421 1848  
                                    u3501 0E7E                                      u3341 10D8  
                                    u3430 18B0                                      u3510 0E9A  
                                    u3350 113C                                      u3431 18AC  
                                    u3511 0E96                                      u3351 1138  
                                    u3520 0ED0                                      u3360 147C  
                                    u3440 2944                                      u3600 252C  
                                    u3521 0ECC                                      u3361 1478  
                                    u3441 2940                                      u3601 2528  
                                    u3530 0EE0                                      u3370 14A6  
                                    u3450 2952                                      u3610 2544  
                                    u3531 0EDC                                      u3371 14A2  
                                    u3451 294E                                      u3611 2540  
                                    u3540 0F0E                                      u3380 1522  
                                    u3460 2A10                                      u3541 0F0A  
                                    u3381 151E                                      u3461 2A0C  
                                    u3550 0F42                                      u3470 0E40  
                                    u3390 28C2                                      u3551 0F3E  
                                    u3471 0E3C                                      u3391 28BE  
                                    u3560 0F76                                      u3480 0E56  
                                    u3561 0F72                                      u3481 0E52  
                                    u3570 0F86                                      u3490 0E6E  
                                    u3571 0F82                                      u3491 0E6A  
                                    u3580 0F98                                      u3581 0F94  
                                    u3590 2518                                      u3591 2514  
                                    i2l31 27EA                                      u3687 24FC  
                   ??_USBCtrlTrfTxService 002B                                      i2l69 29CE  
                                    _UCFG 000F6F                                      _UEP0 000F70  
                                    _UEP1 000F71                                      _UEIE 000F6B  
                                    _UEIR 000F6A                                      _UCON 000F6D  
                         _CDCDataInHandle 0084    USBStdFeatureReqHandler@current_ep_data 0043  
                                    _pDst 0086                                      _main 24CE  
                ??i2_USBTransferOnePacket 002F                                      fsr1h 000FE2  
                                    fsr2h 000FDA                                      indf1 000FE7  
                             _BaudRateGen 0070                                      indf2 000FDF  
                                    fsr1l 000FE1                                      fsr2l 000FD9  
                         _USBDeviceAttach 28B2                                      btemp 0054  
                                    prodh 000FF4                                      prodl 000FF3  
                                    start 000E                             __CFG_IESO$OFF 000000  
              __end_of_USBCheckStdRequest 1CCE                    ??_USBCtrlTrfOutHandler 002D  
                           __CFG_MCLRE$ON 000000                              ___param_bank 000000  
               ??_USBStdFeatureReqHandler 003F                  ??_USBStdGetStatusHandler 002B  
                          ?_USBDeviceInit 002B                             __CFG_PLLDIV$2 000000  
                          __CFG_CCP2MX$ON 000000                                     ?_main 002B  
       __size_of_USBCtrlEPServiceComplete 0144                    __end_of_USBDeviceTasks 0E2A  
               ?_USBCtrlEPServiceComplete 002B                                     i2l303 2420  
                                   i2l311 1748                                     i2l231 16AA  
                                   i2l321 17EE                                     i2l226 15C6  
                                   i2l308 24CC                                     i2l261 28B0  
                                   i2l237 0C62                                     i2l430 1EE0  
                                   i2l422 1ECC                                     i2l406 2372  
                                   i2l238 0E28                                     i2l247 0D7E  
                                   i2l336 1DDC                                     i2l416 26F6  
                                   i2l248 0E26                                     i2l409 25FA  
                                   i2l249 0D90                                     i2l530 20E4  
                                   i2l370 1412                                     i2l434 1CCC  
                                   i2l347 1A5C                                     i2l267 1BB0  
                                   i2l451 08F4                                     i2l356 22BA  
                                   i2l436 1BCE                                     i2l429 1EDA  
                                   i2l293 21D4                                     i2l349 1A72  
                                   i2l621 2682                                     i2l445 1C24  
                                   i2l470 0B62                                     i2l462 0AB4  
                                   i2l374 1EF0                                     i2l543 275A  
                                   i2l384 1FE2                                     i2l392 29FC  
                                   i2l297 21D4                                     i2l537 2062  
                                   i2l377 1FC6                                     i2l474 0C00  
                                   i2l378 1F08                                     i2l539 2098  
                                   i2l379 1F0E                                     i2l387 27B8  
                                   i2l389 27BA                                     i2l398 2932  
                                   i2l479 299E                                     _UADDR 000F6E  
                                   _PORTA 000F80                                     _PORTD 000F83  
                           __CFG_USBDIV$2 000000                                     _TRISA 000F92  
                                   _TRISD 000F95                                     _USTAT 000F6C  
                           __CFG_PWRT$OFF 000000                             __CFG_WRT0$OFF 000000  
      __size_of_USBCtrlEPAllowStatusStage 00F0                             __CFG_WRT1$OFF 000000  
                           __CFG_WRT2$OFF 000000                             __CFG_WRT3$OFF 000000  
                          __CFG_EBTR0$OFF 000000                            __CFG_FCMEN$OFF 000000  
                          __CFG_EBTR1$OFF 000000                            __CFG_EBTR2$OFF 000000  
                          __CFG_EBTR3$OFF 000000           __end_of_USBCtrlEPAllowDataStage 2422  
                         __end_of_mainISR 2816                                     _sd000 08A4  
                                   _sd001 084C                                     _sd002 0872  
                           __CFG_WRTB$OFF 000000            ?_USBIncrement1msInternalTimers 002B  
                           __CFG_WRTC$OFF 000000                             __CFG_WRTD$OFF 000000  
                          __CFG_EBTRB$OFF 000000                                     tablat 000FF5  
                                   plusw2 000FDB                         __end_of_CDCInitEP 275C  
                                   ttemp5 0055                                     ttemp6 0058  
                                   ttemp7 005C                                     status 000FD8  
                                   wtemp8 0055                           __end_ofmain@msg 08AC  
                          __CFG_ICPRT$OFF 000000                          __end_ofi2_memset 12B4  
                          __CFG_PBADEN$ON 000000                           putUSBUSART@data 009F  
            __size_of_USBStdSetCfgHandler 00E6                           __initialization 2A2A  
                            __end_of_main 256C                     _control_signal_bitmap 0088  
               __size_of_USBCtrlEPService 00B8                                    ??_main 00AC  
                           __activetblptr 000002                           ?_USBDeviceTasks 002B  
                             ?_USBSuspend 002B                              _cdc_mem_type 0089  
                 __end_of_USBDeviceAttach 28F4                                    _ADCON1 000FC1  
                        _CDCDataOutHandle 0015                     __size_of_CDCTxService 019C  
                                  i2l1301 2864                                    i2l3001 1168  
                                  i2l1305 12B2                                    i2l3011 1210  
                                  i2l3021 1296                                    i2l3013 123C  
                                  i2l3005 119E                                    i2l3101 2248  
                                  i2l3031 210A                                    i2l3023 129C  
                                  i2l3007 11F6                                    i2l3111 227E  
                                  i2l3103 2264                                    i2l3041 214C  
                                  i2l3033 210E                                    i2l3201 08E8  
                                  i2l3121 12B4                                    i2l3025 12A0  
                                  i2l3017 1256                                    i2l3113 2282  
                                  i2l3105 2266                                    i2l3051 2190  
                                  i2l3043 215C                                    i2l3035 2120  
                                  i2l3027 20E6                                    i2l3211 0942  
                                  i2l3203 08F0                                    i2l3131 12F4  
                                  i2l3123 12C8                                    i2l3019 128A  
                                  i2l3115 2292                                    i2l3107 226E  
                                  i2l3053 219C                                    i2l3045 2160  
                                  i2l3037 2130                                    i2l3029 20F6  
                                  i2l3221 09BC                                    i2l3213 0954  
                                  i2l3205 0904                                    i2l3141 1388  
                                  i2l3133 1310                                    i2l3125 12D0  
                                  i2l3117 229A                                    i2l3109 2276  
                                  i2l3061 2374                                    i2l3301 1772  
                                  i2l3055 21A0                                    i2l3047 2170  
                                  i2l3039 213C                                    i2l3231 0A0A  
                                  i2l3223 09D4                                    i2l3215 0964  
                                  i2l3207 0918                                    i2l3143 13A4  
                                  i2l3135 133E                                    i2l3127 12D8  
                                  i2l3151 13E0                                    i2l3119 22B6  
                                  i2l3071 23D0                                    i2l3063 237E  
                                  i2l3311 1796                                    i2l3303 1776  
                                  i2l4007 27E6                                    i2l3057 21B0  
                                  i2l3049 2184                                    i2l3241 0A80  
                                  i2l3233 0A2C                                    i2l3225 09E2  
                                  i2l3217 0982                                    i2l3209 092C  
                                  i2l3145 13D0                                    i2l3137 1370  
                                  i2l3129 12E4                                    i2l3401 1C26  
                                  i2l3081 2414                                    i2l3073 23E8  
                                  i2l3065 2390                                    i2l3321 17D6  
                                  i2l3313 17A6                                    i2l3305 177A  
                                  i2l3059 21C4                                    i2l3331 1958  
                                  i2l3251 0AFC                                    i2l3243 0A9C  
                                  i2l3235 0A4A                                    i2l3227 09F2  
                                  i2l3219 099E                                    i2l3147 13D8  
                                  i2l3139 1378                                    i2l3171 1F5E  
                                  i2l3163 1EF2                                    i2l3083 21D6  
                                  i2l3403 1C3A                                    i2l3075 23F0  
                                  i2l3067 23B4                                    i2l3323 17DA  
                                  i2l3315 17BA                                    i2l3307 178A  
                                  i2l3501 1EBC                                    i2l3341 1988  
                                  i2l3333 195C                                    i2l3261 0B4C  
                                  i2l3253 0B08                                    i2l3237 0A5C  
                                  i2l3245 0AD0                                    i2l3229 09FC  
                                  i2l3181 1FD4                                    i2l3173 1F74  
                                  i2l3165 1F02                                    i2l3085 21D8  
                                  i2l3077 23F4                                    i2l3069 23C0  
                                  i2l3317 17C6                                    i2l3309 1792  
                                  i2l3421 283A                                    i2l3503 1EDA  
                                  i2l3351 19E8                                    i2l3343 198A  
                                  i2l3335 1964                                    i2l3327 1932  
                                  i2l3263 0B72                                    i2l3271 0BD2  
                                  i2l3255 0B28                                    i2l3247 0ADA  
                                  i2l3239 0A72                                    i2l3183 1FDC  
                                  i2l3175 1F8A                                    i2l3167 1F1E  
                                  i2l3159 1EE2                                    i2l3095 2216  
                                  i2l3087 2210                                    i2l3407 1C5A  
                                  i2l3079 2408                                    i2l3319 17D2  
                                  i2l3431 2592                                    i2l3423 2846  
                                  i2l3415 2816                                    i2l3505 1EDC  
                                  i2l3361 1A44                                    i2l3353 19F4  
                                  i2l3345 199C                                    i2l3337 196C  
                                  i2l3329 1942                                    i2l3273 0BDE  
                                  i2l3265 0B8E                                    i2l3257 0B34  
                                  i2l3249 0AF0                                    i2l3193 08AE  
                                  i2l3185 1FDE                                    i2l3169 1F40  
                                  i2l3097 2236                                    i2l3089 2212  
                                  i2l3281 16CA                                    i2l3441 25C2  
                                  i2l3433 259C                                    i2l3417 282A  
                                  i2l3425 284A                                    i2l3601 234A  
                                  i2l3363 1A50                                    i2l3355 1A04  
                                  i2l3347 19AE                                    i2l3339 1984  
                                  i2l3275 0BF4                                    i2l3267 0BA6  
                                  i2l3259 0B3E                                    i2l3195 08C0  
                                  i2l3179 1F92                                    i2l3099 2238  
                                  i2l3371 1BB2                                    i2l3291 1714  
                                  i2l3283 16E0                                    i2l3451 25F6  
                                  i2l3443 25CA                                    i2l3435 25A8  
                                  i2l3427 256C                                    i2l3419 2836  
                                  i2l3603 2352                                    i2l3611 1564  
                                  i2l3365 1A5C                                    i2l3357 1A10  
                                  i2l3349 19D2                                    i2l3461 26D6  
                                  i2l3453 2684                                    i2l2821 2466  
                                  i2l2901 206A                                    i2l3269 0BB2  
                                  i2l3197 08D4                                    i2l3381 1BE8  
                                  i2l3293 1720                                    i2l3285 16E4  
                                  i2l3277 16AC                                    i2l3445 25CE  
                                  i2l3437 25B2                                    i2l3429 2586  
                                  i2l3605 235A                                    i2l3541 28F8  
                                  i2l3621 1598                                    i2l3613 1570  
                                  i2l3471 1DF8                                    i2l3367 1A5E  
                                  i2l3359 1A20                                    i2l3463 26E2  
                                  i2l3455 2696                                    i2l2831 24BE  
                                  i2l2823 2470                                    i2l2903 207A  
                                  i2l3199 08D6                                    i2l3391 1C04  
                                  i2l3383 1BF0                                    i2l3375 1BD0  
                                  i2l3295 1738                                    i2l3287 16E8  
                                  i2l3279 16BC                                    i2l3447 25D6  
                                  i2l3439 25BE                                    i2l3607 236E  
                                  i2l3551 292C                                    i2l3543 2914  
                                  i2l3631 15B6                                    i2l3615 158C  
                                  i2l3473 1E0A                                    i2l3481 1E2E  
                                  i2l3369 1A6E                                    i2l3465 26F2  
                                  i2l3457 269E                                    i2l2825 2480  
                                  i2l2817 2424                                    i2l2841 2898  
                                  i2l2833 2868                                    i2l2921 26F8  
                                  i2l2905 2080                                    i2l2913 20A2  
                                  i2l3393 1C0C                                    i2l3385 1BF2  
                                  i2l3377 1BD8                                    i2l3297 1758  
                                  i2l3289 16F0                                    i2l3449 25DA  
                                  i2l3561 29DA                                    i2l3553 29D0  
                                  i2l3545 2916                                    i2l3641 15D2  
                                  i2l3633 15C8                                    i2l3617 1590  
                                  i2l3609 1562                                    i2l3801 0C88  
                                  i2l3491 1E74                                    i2l3483 1E3E  
                                  i2l3475 1E12                                    i2l3467 1DDE  
                                  i2l3459 26B2                                    i2l2827 249C  
                                  i2l2819 242C                                    i2l2843 28A4  
                                  i2l2835 2876                                    i2l2851 1ABA  
                                  i2l2931 2756                                    i2l2923 271A  
                                  i2l2907 2088                                    i2l3395 1C18  
                                  i2l3387 1BF6                                    i2l3379 1BE0  
                                  i2l3299 176E                                    i2l3571 298C  
                                  i2l3563 29E0                                    i2l3555 29D2  
                                  i2l3547 291C                                    i2l3539 28F4  
                                  i2l3643 15D6                                    i2l3635 15CC  
                                  i2l3627 159C                                    i2l3619 1594  
                                  i2l3811 0CB8                                    i2l3803 0C8A  
                                  i2l3493 1E84                                    i2l3485 1E52  
                                  i2l3477 1E22                                    i2l3469 1DEE  
                                  i2l2829 24B4                                    i2l2837 2880  
                                  i2l2861 1B08                                    i2l2853 1ACC  
                                  i2l2845 1A76                                    i2l2925 2724  
                                  i2l2909 2090                                    i2l2941 2610  
                                  i2l2933 25FC                                    i2l3397 1C1A  
                                  i2l3389 1BFC                                    i2l3573 299C  
                                  i2l3565 296C                                    i2l3581 279E  
                                  i2l3557 29D4                                    i2l3549 291E  
                                  i2l3661 165A                                    i2l3645 15DA  
                                  i2l3637 15CE                                    i2l3629 15B4  
                                  i2l3821 0CF8                                    i2l3813 0CC6  
                                  i2l3805 0C98                                    i2l2951 1CCE  
                                  i2l3495 1E94                                    i2l3487 1E56  
                                  i2l3479 1E2A                                    i2l2839 288E  
                                  i2l2871 1BA8                                    i2l2863 1B14  
                                  i2l2847 1A86                                    i2l2927 272E  
                                  i2l2935 2600                                    i2l3399 1C1E  
                                  i2l3591 22D6                                    i2l3567 297A  
                                  i2l3583 27AA                                    i2l3575 275C  
                                  i2l3559 29D6                                    i2l3671 1682  
                                  i2l3663 165C                                    i2l3655 160A  
                                  i2l3647 15E2                                    i2l3639 15D0  
                                  i2l3831 0D2A                                    i2l3823 0CFA  
                                  i2l3815 0CE2                                    i2l3807 0CA6  
                                  i2l3903 29A0                                    i2l2961 1D04  
                                  i2l2953 1CD2                                    i2l3497 1EA0  
                                  i2l3489 1E68                                    i2l2865 1B20  
                                  i2l2857 1AD8                                    i2l2849 1AA2  
                                  i2l2929 274C                                    i2l2937 2608  
                                  i2l3593 22F2                                    i2l3569 298A  
                                  i2l3585 27B6                                    i2l3577 276A  
                                  i2l3681 16A2                                    i2l3673 1686  
                                  i2l3665 166C                                    i2l3657 163A  
                                  i2l3649 15F0                                    i2l3841 0D68  
                                  i2l3833 0D2E                                    i2l3825 0D0A  
                                  i2l3817 0CE4                                    i2l3809 0CAA  
                                  i2l3905 29AE                                    i2l2971 1D3A  
                                  i2l2963 1D14                                    i2l2955 1CE8  
                                  i2l3499 1EB0                                    i2l2867 1B30  
                                  i2l2859 1AFC                                    i2l2891 2044  
                                  i2l2883 2018                                    i2l2875 1FE4  
                                  i2l3595 22FA                                    i2l3587 22BC  
                                  i2l3579 2784                                    i2l3683 16A6  
                                  i2l3675 168A                                    i2l3667 1674  
                                  i2l3659 164A                                    i2l3851 0D9E  
                                  i2l3843 0D78                                    i2l3835 0D3C  
                                  i2l3819 0CE8                                    i2l3827 0D0E  
                                  i2l3771 0C02                                    i2l3907 29BC  
                                  i2l2981 1D80                                    i2l2957 1CEC  
                                  i2l2965 1D18                                    i2l2869 1B6E  
                                  i2l2893 204C                                    i2l2885 2028  
                                  i2l3597 2304                                    i2l3589 22C0  
                                  i2l3677 168C                                    i2l3669 1678  
                                  i2l3861 0DD0                                    i2l3853 0DA2  
                                  i2l3845 0D8C                                    i2l3837 0D4A  
                                  i2l3829 0D1C                                    i2l3773 0C12  
                                  i2l3781 0C2C                                    i2l3909 29CA  
                                  i2l2991 1DCA                                    i2l2975 1D4C  
                                  i2l2983 1D82                                    i2l2967 1D20  
                                  i2l2959 1CFC                                    i2l2895 204E  
                                  i2l2879 1FFE                                    i2l3599 2322  
                                  i2l3679 1690                                    i2l3871 0E16  
                                  i2l3863 0DE0                                    i2l3855 0DAC  
                                  i2l3839 0D64                                    i2l3791 0C5C  
                                  i2l3783 0C3A                                    i2l3775 0C20  
                                  i2l2985 1D96                                    i2l2977 1D76  
                                  i2l2993 1DCC                                    i2l2969 1D30  
                                  i2l2897 2054                                    i2l2889 203C  
                                  i2l3865 0DF0                                    i2l3857 0DAE  
                                  i2l3793 0C70                                    i2l3785 0C48  
                                  i2l3777 0C24                                    i2l2987 1DC0  
                                  i2l2979 1D7A                                    i2l2899 205C  
                                  i2l4771 13F4                                    i2l2995 113E  
                                  i2l3867 0DF8                                    i2l3859 0DBC  
                                  i2l3795 0C7E                                    i2l3787 0C4A  
                                  i2l3779 0C26                                    i2l2989 1DC4  
                                  i2l4773 262E                                    i2l3869 0E14  
                                  i2l3797 0C82                                    i2l3789 0C4E  
                                  i2l4775 2674                                    i2l2999 115C  
                                  i2l4767 1C6E                                    i2l3799 0C84  
                                  i2l4777 20B6                                    i2l4769 1FA8  
                           main@lastState 00AD                             CDCTxService@i 00AA  
                i2USBTransferOnePacket@ep 0033                         ??i2_USBDeviceInit 0037  
         __size_ofi2_USBTransferOnePacket 013E                            __CFG_VREGEN$ON 000000  
                       _shortPacketStatus 0027                            __CFG_XINST$OFF 000000  
                         USBDeviceTasks@i 0049               USBStdFeatureReqHandler@pUEP 0041  
                USBTransferOnePacket@data 00A0                USBCtrlTrfInHandler@lastDTS 002C  
                         ??_USBDeviceInit 00AB                              ?_putUSBUSART 009F  
                          __CFG_STVREN$ON 000000                         _USBEnableEndpoint 2866  
         __size_of_USBStdGetStatusHandler 0102                                    _memcpy 2816  
                                  _memset 0FC6                                    clear_0 2A30  
                                  clear_1 2A3C                        ?_USBEnableEndpoint 0033  
                               ??_mainISR 004A             __size_of_USBTransferOnePacket 0142  
                __size_of_processUSBTasks 0030                              _CDCTxService 0E2A  
                            __mediumconst 0000                                    tblptrh 000FF7  
                                  tblptrl 000FF6                                    tblptru 000FF8  
                     ??_USBEnableEndpoint 0034                               _CtrlTrfData 000450  
                    _controlTransferState 0026                                __accesstop 0060  
                 __end_of__initialization 2A42                             ___rparam_used 000001  
                __size_of_USBStallHandler 0060                       __size_of_USBSuspend 002E  
                          __pcstackCOMRAM 002B                 __end_of_USBEnableEndpoint 28B2  
                           __end_of_sd000 08A8                             __end_of_sd001 0872  
                           __end_of_sd002 0892          __size_of_USBCtrlEPAllowDataStage 00AE  
           __size_of_USBConfigureEndpoint 00AC               __end_of_USBCtrlTrfInHandler 1EE2  
                  i2_USBTransferOnePacket 1A74                                _cdc_notice 0060  
                               ?i2_memset 002B                                _cdc_rx_len 001D  
                              _cdc_tx_len 001B                  ??_USBCtrlTrfSetupHandler 0048  
                 _USBTicksSinceSuspendEnd 008A                          ?_USBDeviceAttach 002B  
                  _USBStdGetStatusHandler 1EE2                                __pbssBANK0 0060  
             __size_of_USBWakeFromSuspend 0040                               _pBDTEntryIn 000F  
        __end_of_USBCtrlEPServiceComplete 17F0               __size_of_USBCheckCDCRequest 0102  
                              _isUSBReady 2934                      USBCtrlTrfRxService@i 002B  
                          _isUSBReady$299 009F                                   ?_memcpy 002B  
                                 ?_memset 009F                                _device_dsc 0892  
                        _USBCtrlEPService 22BC                                _ep_data_in 0081  
             __end_of_USBCtrlTrfRxService 1A74                        _USBCheckStdRequest 1BB2  
                       _configDescriptor1 0809                                ??i2_memset 0031  
             __end_of_USBCtrlTrfTxService 1DDE                       _USBStdSetCfgHandler 21D6  
                     ?_USBCheckStdRequest 002B              __size_of_USBStdGetDscHandler 0160  
                                 _UIEbits 000F69                         ??_processUSBTasks 004A  
                                 _UIRbits 000F68                             _cdc_trf_state 001C  
                                 _pCDCDst 0078                                   _pCDCSrc 007B  
                              _initUSBLib 2A50                                   __Hparam 0000  
         ??_USBIncrement1msInternalTimers 002B                      ?_USBStdSetCfgHandler 002B  
                               _CDCInitEP 26F8                                   __Lparam 0000  
              __size_of_USBEnableEndpoint 004C                      ??_USBCheckStdRequest 0046  
           __size_of_USBCtrlTrfOutHandler 0074                          ??_USBDeviceTasks 0049  
                       ??_USBStallHandler 002B                              __psmallconst 0800  
                    __size_of_putUSBUSART 002C                                   __pcinit 2A2A  
                         __size_of_memcpy 0050                           __size_of_memset 0178  
               __end_of_configDescriptor1 084C                                   __ramtop 0800  
                                 __ptext0 24CE                                   __ptext1 29FE  
                                 __ptext2 2934                                   __ptext3 2A50  
                                 __ptext4 1414                                   __ptext5 0FC6  
                                 __ptext6 28B2                                   __ptext7 0E2A  
                                 __ptext8 17F0                              i2memset@dest 002B  
                                 _inPipes 0009                                   _mainISR 0008  
             _USBDeferOUTDataStagePackets 008B                              ??_USBSuspend 003F  
                         i2_USBDeviceInit 1562                          i2USBDeviceInit@i 0037  
                      __end_of_USB_CD_Ptr 0809           __size_of_USBCtrlTrfSetupHandler 0090  
                                 main@msg 08A8                            __pintcode_body 27BC  
                    end_of_initialization 2A42                        __end_of_USB_SD_Ptr 0807  
                                 memcpy@d 0031                                   memcpy@n 002F  
                                 memcpy@s 0033                       _pBDTEntryEP0OutNext 0017  
                                 memset@c 00A1                                   memset@k 00A7  
                                 memset@n 00A3                                   memset@s 00A9  
                           __Lmediumconst 0000                                   int_func 27BC  
                         _USB1msTickCount 0074           _dummy_encapsulated_cmd_response 008E  
                ?_USBStdFeatureReqHandler 002B                     ??_USBStdSetCfgHandler 003F  
                              ?_CDCInitEP 002B                               ?_isUSBReady 002B  
                      __end_of_USBSuspend 29FE                   _USBCtrlEPAllowDataStage 2374  
                                 postdec2 000FDD                                   postinc0 000FEE  
                                 postinc2 000FDE                  _USBCtrlEPServiceComplete 16AC  
              _USBStatusStageEnabledFlag1 001F                _USBStatusStageEnabledFlag2 001E  
                      USBEnableEndpoint@p 0034                                 _TRISBbits 000F93  
                      _BothEP0OutUOWNsSet 0022                 USBConfigureEndpoint@EPNum 0030  
              ?_USBCtrlEPAllowStatusStage 002B       USER_USB_CALLBACK_EVENT_HANDLER@size 003B  
                               _USTATcopy 0029              __end_of_USBTransferOnePacket 1932  
                             ?_initUSBLib 002B                         putUSBUSART@length 00A1  
                  _USBCtrlTrfSetupHandler 256C                   ?i2_USBTransferOnePacket 002B  
                   __end_of_USBDeviceInit 1562     __end_of_USBIncrement1msInternalTimers 29A0  
  __size_of_USBIncrement1msInternalTimers 0034             _USBIncrement1msInternalTimers 296C  
                 __end_ofi2_USBDeviceInit 16AC                                 i2memset@c 002D  
                               i2memset@k 0033                                 i2memset@n 002F  
                               i2memset@s 0035                            __end_of_memcpy 2866  
                          __end_of_memset 113E                         _USBBusIsSuspended 0024  
                     start_initialization 2A2A                   ?_USBStdGetStatusHandler 002B  
           USBCtrlTrfRxService@byteToRead 002C                       __size_of_isUSBReady 0038  
                             _cdc_data_rx 000540                               _cdc_data_tx 000500  
                       __size_ofi2_memset 0176              __end_of_USBConfigureEndpoint 24CE  
         __end_of_USBStdFeatureReqHandler 0C02         __end_of_USBCtrlEPAllowStatusStage 21D6  
                __end_of_USBCtrlEPService 2374                 ??_USBCtrlEPAllowDataStage 002C  
                             ??_CDCInitEP 0037                            USBDeviceInit@i 00AB  
                  _pBDTEntryEP0OutCurrent 0019                   USBTransferOnePacket@dir 009F  
                 USBTransferOnePacket@len 00A2            __end_ofi2_USBTransferOnePacket 1BB2  
                     _USBStdGetDscHandler 12B4                          __CFG_LPT1OSC$OFF 000000  
                                ??_memcpy 0031                                  ??_memset 00A5  
                              memset@dest 009F                           _processUSBTasks 29A0  
                  _USBActiveConfiguration 002A            __end_of_USBStdGetStatusHandler 1FE4  
                             __pbssCOMRAM 0001                             __pcstackBANK0 009F  
            __size_of_USBCtrlTrfInHandler 0104                       __size_of_initUSBLib 000E  
                    ?_USBStdGetDscHandler 002B                __end_of_USBWakeFromSuspend 2934  
                         _USBStallHandler 275C                              _currentState 008D  
                            _pBDTEntryOut 006A                __end_of_USBCheckCDCRequest 20E6  
                __size_of_USBDeviceAttach 0042                                 __pintcode 0008  
                        ?i2_USBDeviceInit 002B                                  ?_mainISR 002B  
                    _USBTransferOnePacket 17F0                               __smallconst 0800  
            __end_of_USBCtrlTrfOutHandler 26F8                     ??_USBStdGetDscHandler 002B  
                             _ep_data_out 007E              __size_of_USBCtrlTrfRxService 0142  
           USBConfigureEndpoint@direction 002B              __size_of_USBCtrlTrfTxService 0110  
              ??_USBCtrlEPServiceComplete 002C                                  _IPR2bits 000FA2  
                                _PIE2bits 000FA0                                  i2u200_40 133C  
                                i2u200_47 1332                                  i2u201_40 136A  
                                i2u201_47 1360                                  i2u210_40 08D4  
                                i2u202_40 1388                                  i2u210_41 08D0  
                                i2u202_41 1384                                  i2u211_40 08E8  
                                i2u203_40 13C4                                  i2u211_41 08E4  
                                i2u203_47 13BA                                  i2u220_40 0A5C  
                                i2u212_40 0904                                  i2u204_40 1F02  
                                i2u220_41 0A58                                  i2u212_41 0900  
                                i2u204_41 1EFE                                  i2u221_40 0A72  
                                i2u213_40 0918                                  i2u205_40 1F1E  
                                i2u221_41 0A6E                                  i2u213_41 0914  
                                i2u205_41 1F1A                                  i2u222_40 0A80  
                                i2u214_40 092C                                  i2u206_40 1F74  
                                i2u230_40 1758                                  i2u222_41 0A7C  
                                i2u214_41 0928                                  i2u206_41 1F70  
                                i2u230_41 1754                                  i2u223_40 0AF0  
                                i2u215_40 0942                                  i2u207_40 1F8A  
                                i2u231_40 176E                                  i2u223_41 0AEC  
                                i2u215_41 093E                                  i2u207_41 1F86  
                                i2u231_41 176A                                  i2u224_40 0B4C  
                                i2u216_40 0954                                  i2u208_40 1FD4  
                                i2u232_40 178A                                  i2u240_40 2864  
                                i2u224_41 0B48                                  i2u216_41 0950  
                                i2u208_41 1FD0                                  i2u232_41 1786  
                                i2u240_41 2860                                  i2u241_40 2696  
                                i2u225_40 0B62                                  i2u217_40 0964  
                                i2u209_40 08C0                                  i2u233_40 17EA  
                                i2u241_41 2692                                  i2u225_41 0B5E  
                                i2u217_41 0960                                  i2u209_41 08BC  
                                i2u233_41 17E6                                  i2u234_40 1958  
                                i2u242_40 26B2                                  i2u170_40 1A86  
                                i2u226_40 0B72                                  i2u218_40 09E2  
                                i2u234_41 1954                                  i2u242_41 26AE  
                                i2u170_41 1A82                                  i2u226_41 0B6E  
                                i2u218_41 09DE                                  i2u243_40 1E0A  
                                i2u235_40 199C                                  i2u171_40 1ACC  
                                i2u219_40 0A0A                                  i2u227_40 16BC  
                                i2u243_41 1E06                                  i2u235_41 1998  
                                i2u171_41 1AC8                                  i2u219_41 0A06  
                                i2u227_41 16B8                                  i2u180_40 1D48  
                                i2u244_40 1E22                                  i2u236_40 19AE  
                                i2u172_40 1B30                                  i2u228_40 16CA  
                                i2u260_40 22D6                                  i2u180_41 1D44  
                                i2u244_41 1E1E                                  i2u236_41 19AA  
                                i2u172_41 1B2C                                  i2u228_41 16C6  
                                i2u260_41 22D2                                  i2u181_40 1D74  
                                i2u245_40 1E3E                                  i2u237_40 19E8  
                                i2u173_40 1FFA                                  i2u229_40 16E0  
                                i2u261_40 2322                                  i2u245_41 1E3A  
                                i2u237_41 19E4                                  i2u173_41 1FF6  
                                i2u229_41 16DC                                  i2u261_41 231E  
                                i2u181_47 1D6A                                  i2u182_40 1D92  
                                i2u246_40 1E68                                  i2u190_40 20F6  
                                i2u238_40 1A6E                                  i2u174_40 2014  
                                i2u262_40 236E                                  i2u254_40 292C  
                                i2u182_41 1D8E                                  i2u246_41 1E64  
                                i2u190_41 20F2                                  i2u238_41 1A6A  
                                i2u174_41 2010                                  i2u262_41 236A  
                                i2u254_41 2928                                  i2u183_40 1DBE  
                                i2u247_40 1E94                                  i2u191_40 210A  
                                i2u167_40 2480                                  i2u175_40 2028  
                                i2u239_40 1BCA                                  i2u255_40 298A  
                                i2u263_40 15C6                                  i2u271_40 0C12  
                                i2u247_41 1E90                                  i2u191_41 2106  
                                i2u167_41 247C                                  i2u175_41 2024  
                                i2u239_41 1BC6                                  i2u255_41 2986  
                                i2u263_41 15C2                                  i2u271_41 0C0E  
                                i2u183_47 1DB4                                  i2u184_40 1DDC  
                                i2u248_40 1EDA                                  i2u192_40 2120  
                                i2u168_40 2876                                  i2u176_40 2038  
                                i2u256_40 299C                                  i2u264_40 15F0  
                                i2u280_40 0CB8                                  i2u272_40 0C20  
                                i2u184_41 1DD8                                  i2u248_41 1ED6  
                                i2u192_41 211C                                  i2u168_41 2872  
                                i2u176_41 2034                                  i2u256_41 2998  
                                i2u264_41 15EC                                  i2u280_41 0CB4  
                                i2u272_41 0C1C                                  i2u177_40 1CE8  
                                i2u193_40 215C                                  i2u169_40 288E  
                                i2u185_40 1158                                  i2u257_40 276A  
                                i2u265_40 166C                                  i2u281_40 0CC6  
                                i2u273_40 0C3A                                  i2u177_41 1CE4  
                                i2u193_41 2158                                  i2u169_41 288A  
                                i2u185_41 1154                                  i2u257_41 2766  
                                i2u265_41 1668                                  i2u281_41 0CC2  
                                i2u273_41 0C36                                  i2u178_40 1CFC  
                                i2u186_40 119A                                  i2u194_40 2390  
                                i2u258_40 2784                                  i2u290_40 0D9E  
                                i2u282_40 0CF8                                  i2u274_40 0C48  
                                i2u178_41 1CF8                                  i2u186_41 1196  
                                i2u194_41 238C                                  i2u258_41 2780  
                                i2u290_41 0D9A                                  i2u282_41 0CF4  
                                i2u274_41 0C44                                  i2u179_40 1D14  
                                i2u187_40 120C                                  i2u195_40 23E8  
                                i2u259_40 279E                                  i2u291_40 0DBC  
                                i2u283_40 0D0A                                  i2u275_40 0C5C  
                                i2u179_41 1D10                                  i2u187_41 1208  
                                i2u195_41 23E4                                  i2u259_41 279A  
                                i2u291_41 0DB8                                  i2u283_41 0D06  
                                i2u275_41 0C58                                  _PIR2bits 000FA1  
                                i2u188_40 1252                                  i2u196_40 2248  
                                i2u292_40 0DF0                                  i2u284_40 0D1C  
                                i2u276_40 0C70                                  i2u188_41 124E  
                                i2u196_41 2244                                  i2u292_41 0DEC  
                                i2u284_41 0D18                                  i2u276_41 0C6C  
                                i2u189_40 12B2                                  i2u197_40 2292  
                                i2u293_40 0E26                                  i2u285_40 0D2A  
                                i2u277_40 0C7E                                  i2u189_41 12AE  
                                i2u197_41 228E                                  i2u293_41 0E22  
                                i2u285_41 0D26                                  i2u277_41 0C7A  
                                i2u198_40 12C8                                  i2u286_40 0D3C  
                                i2u278_40 0C98                                  i2u198_41 12C4  
                                i2u286_41 0D38                                  i2u278_41 0C94  
                                i2u199_40 12F4                                  i2u287_40 0D4A  
                                i2u279_40 0CA6                                  i2u199_41 12F0  
                                i2u287_41 0D46                                  i2u279_41 0CA2  
                                i2u288_40 0D78                                  i2u288_41 0D74  
                            ??_isUSBReady 009F                                  i2u289_40 0D8C  
                                i2u297_40 29AE                                  i2u289_41 0D88  
                                i2u297_41 29AA                                  i2u298_40 29BC  
                                i2u298_41 29B8                                  i2u299_40 29CA  
                                i2u299_41 29C6                             ??_putUSBUSART 00A2  
                        __CFG_WDTPS$32768 000000                                  _UEP0bits 000F70  
                 __end_of_processUSBTasks 29D0                _USBDeferINDataStagePackets 008C  
             __size_of_USBCheckStdRequest 011C                                  _UCONbits 000F6D  
                    _USBConfigureEndpoint 2422          __size_of_USBStdFeatureReqHandler 0354  
                   ?_USBTransferOnePacket 009F                             ?_CDCTxService 002B  
                            _RemoteWakeup 0025                                  i2_memset 113E  
                 __end_of_USBStallHandler 27BC                        __end_of_isUSBReady 296C  
             ??_USBCtrlEPAllowStatusStage 002B               __end_of_USBStdSetCfgHandler 22BC  
                      __end_of_device_dsc 08A4                              ??_initUSBLib 00AC  
                 ?_USBCtrlTrfSetupHandler 002B                   USBStdGetStatusHandler@p 002D  
                                __Hrparam 0000                                 memcpy@tmp 0035  
                                __Lrparam 0000                    USBTransferOnePacket@ep 00A7  
                                _SetupPkt 000430                     ?_USBConfigureEndpoint 002B  
                       ??_USBDeviceAttach 009F                       __end_of_putUSBUSART 2A2A  
                             _line_coding 0096                            ??_CDCTxService 00AA  
                        __size_of_mainISR 280E                   __size_of_USBDeviceTasks 0228  
                      __end_of_initUSBLib 2A5E                                  __ptext10 29A0  
                                __ptext11 0C02                                  __ptext20 16AC  
                                __ptext12 1562                                  __ptext21 2374  
                                __ptext13 28F4                                  __ptext30 26F8  
                                __ptext22 1BB2                                  __ptext14 29D0  
                                __ptext31 1A74                                  __ptext23 21D6  
                                __ptext15 275C                                  __ptext32 2866  
                                __ptext24 113E                                  __ptext16 296C  
                                __ptext33 2422                                  __ptext25 1EE2  
                                __ptext17 22BC                                  __ptext34 2684  
                                __ptext26 12B4                                  __ptext18 2816  
                                __ptext35 1932                                  __ptext27 08AE  
                                __ptext19 256C                                  __ptext36 20E6  
                                __ptext28 25FC                                  __ptext37 1DDE  
                                __ptext29 1FE4                                  __ptext38 1CCE  
          __end_of_USBCtrlTrfSetupHandler 25FC                             __size_of_main 009E  
                       ?_USBCtrlEPService 002B                        ??_USBCtrlEPService 0048  
                     _USBCtrlTrfInHandler 1DDE                                  _outPipes 0001  
                    _USBCtrlTrfOutHandler 2684                                  int$flags 0054  
                        ?_processUSBTasks 002B                 _USBCtrlEPAllowStatusStage 20E6  
                  ??_USBTransferOnePacket 00A3                     __CFG_CPUDIV$OSC1_PLL2 000000  
               _USBDeferStatusStagePacket 0020                  CDCTxService@byte_to_send 00AB  
                              _INTCONbits 000FF2                      ?_USBCtrlTrfInHandler 002B  
                                memcpy@d1 002B                                  memcpy@s1 002D  
           USBCtrlTrfTxService@byteToSend 002B                          ?_USBStallHandler 002B  
                USBStdFeatureReqHandler@p 0044                                  intlevel2 0000  
                  __size_of_USBDeviceInit 014E   __end_of_USER_USB_CALLBACK_EVENT_HANDLER 2684  
__size_of_USER_USB_CALLBACK_EVENT_HANDLER 0088         ??_USER_USB_CALLBACK_EVENT_HANDLER 003D  
        ?_USER_USB_CALLBACK_EVENT_HANDLER 0037           _USER_USB_CALLBACK_EVENT_HANDLER 25FC  
            i2USBTransferOnePacket@handle 0034                i2USBTransferOnePacket@data 002C  
                  ??_USBConfigureEndpoint 002C                     ?_USBCtrlTrfOutHandler 002B  
                             _putUSBUSART 29FE                       _USBCtrlTrfRxService 1932  
                      _USBWakeFromSuspend 28F4                   _USBStdFeatureReqHandler 08AE  
                      _USBCheckCDCRequest 1FE4                       _USBCtrlTrfTxService 1CCE  
                     ?_USBWakeFromSuspend 002B                     ??_USBCtrlTrfInHandler 002C  
                   _USBAlternateInterface 009D                       ?_USBCheckCDCRequest 002B  
               i2USBTransferOnePacket@dir 002B                 i2USBTransferOnePacket@len 002E  
                     USBEnableEndpoint@ep 0036                           _endpoint_number 0023  
                    ?_USBCtrlTrfRxService 002B                        __CFG_FOSC$HSPLL_HS 000000  
                ?_USBCtrlEPAllowDataStage 002B                      ?_USBCtrlTrfTxService 002B  
            _USBStatusStageTimeoutCounter 0021                      ??_USBWakeFromSuspend 003F  
              USBTransferOnePacket@handle 00A8                      __end_of_CDCTxService 0FC6  
                    ??_USBCheckCDCRequest 002B                                _USB_CD_Ptr 0807  
